---
triple:          'x86_64-apple-darwin'
binary-path:     '/Users/tatuya/atcoder/ABC349/D_'
relocations:
  - { offsetInCU: 0xB4, offset: 0xB4, size: 0x8, addend: 0x0, symName: __ZnwmPv, symObjAddr: 0x0, symBinAddr: 0x100000AAE, symSize: 0x12 }
  - { offsetInCU: 0xBC, offset: 0xBC, size: 0x8, addend: 0x0, symName: __ZSt19piecewise_construct, symObjAddr: 0x1B0D, symBinAddr: 0x100002830, symSize: 0x0 }
  - { offsetInCU: 0x195F, offset: 0x195F, size: 0x8, addend: 0x0, symName: __ZSt19piecewise_construct, symObjAddr: 0x1B0D, symBinAddr: 0x100002830, symSize: 0x0 }
  - { offsetInCU: 0x1BD29, offset: 0x1BD29, size: 0x8, addend: 0x0, symName: __ZStL8__ioinit, symObjAddr: 0x78F68, symBinAddr: 0x100008050, symSize: 0x0 }
  - { offsetInCU: 0x21A81, offset: 0x21A81, size: 0x8, addend: 0x0, symName: _partitions, symObjAddr: 0x78F80, symBinAddr: 0x100008060, symSize: 0x0 }
  - { offsetInCU: 0x21A9B, offset: 0x21A9B, size: 0x8, addend: 0x0, symName: _smal_left, symObjAddr: 0x78FB0, symBinAddr: 0x100008090, symSize: 0x0 }
  - { offsetInCU: 0x21AB6, offset: 0x21AB6, size: 0x8, addend: 0x0, symName: _big_right, symObjAddr: 0x78FB8, symBinAddr: 0x100008098, symSize: 0x0 }
  - { offsetInCU: 0x21AD0, offset: 0x21AD0, size: 0x8, addend: 0x0, symName: _big_left, symObjAddr: 0x1B18, symBinAddr: 0x100008000, symSize: 0x0 }
  - { offsetInCU: 0x2300E, offset: 0x2300E, size: 0x8, addend: 0x0, symName: __ZNSt8__detail30__integer_to_chars_is_unsignedIjEE, symObjAddr: 0x1B0E, symBinAddr: 0x100002831, symSize: 0x0 }
  - { offsetInCU: 0x23028, offset: 0x23028, size: 0x8, addend: 0x0, symName: __ZNSt8__detail30__integer_to_chars_is_unsignedImEE, symObjAddr: 0x1B0F, symBinAddr: 0x100002832, symSize: 0x0 }
  - { offsetInCU: 0x23042, offset: 0x23042, size: 0x8, addend: 0x0, symName: __ZNSt8__detail30__integer_to_chars_is_unsignedIyEE, symObjAddr: 0x1B10, symBinAddr: 0x100002833, symSize: 0x0 }
  - { offsetInCU: 0x2316D, offset: 0x2316D, size: 0x8, addend: 0x0, symName: __ZNSt8__detail30__integer_to_chars_is_unsignedIoEE, symObjAddr: 0x1B11, symBinAddr: 0x100002834, symSize: 0x0 }
  - { offsetInCU: 0x231DC, offset: 0x231DC, size: 0x8, addend: 0x0, symName: __GLOBAL__sub_I_D_.cpp, symObjAddr: 0x1B02, symBinAddr: 0x1000025B0, symSize: 0xB }
  - { offsetInCU: 0x231E4, offset: 0x231E4, size: 0x8, addend: 0x0, symName: __ZSt19piecewise_construct, symObjAddr: 0x1B0D, symBinAddr: 0x100002830, symSize: 0x0 }
  - { offsetInCU: 0x2320A, offset: 0x2320A, size: 0x8, addend: 0x0, symName: __Z41__static_initialization_and_destruction_0v, symObjAddr: 0x1A97, symBinAddr: 0x100002545, symSize: 0x6B }
  - { offsetInCU: 0x23212, offset: 0x23212, size: 0x8, addend: 0x0, symName: __GLOBAL__sub_I_D_.cpp, symObjAddr: 0x1B02, symBinAddr: 0x1000025B0, symSize: 0xB }
  - { offsetInCU: 0x2324F, offset: 0x2324F, size: 0x8, addend: 0x0, symName: __ZNSt3mapIxxSt4lessIxESaISt4pairIKxxEEED1Ev, symObjAddr: 0x1A7C, symBinAddr: 0x10000252A, symSize: 0x1B }
  - { offsetInCU: 0x23257, offset: 0x23257, size: 0x8, addend: 0x0, symName: __Z41__static_initialization_and_destruction_0v, symObjAddr: 0x1A97, symBinAddr: 0x100002545, symSize: 0x6B }
  - { offsetInCU: 0x23251, offset: 0x23251, size: 0x8, addend: 0x0, symName: __ZNSt10_Head_baseILm0ERKxLb0EE7_M_headERS2_, symObjAddr: 0x1A6B, symBinAddr: 0x100002519, symSize: 0x11 }
  - { offsetInCU: 0x23259, offset: 0x23259, size: 0x8, addend: 0x0, symName: __ZNSt3mapIxxSt4lessIxESaISt4pairIKxxEEED1Ev, symObjAddr: 0x1A7C, symBinAddr: 0x10000252A, symSize: 0x1B }
  - { offsetInCU: 0x23282, offset: 0x23282, size: 0x8, addend: 0x0, symName: __ZNSt11_Tuple_implILm0EJRKxEE7_M_headERS2_, symObjAddr: 0x1A51, symBinAddr: 0x1000024FF, symSize: 0x1A }
  - { offsetInCU: 0x2328A, offset: 0x2328A, size: 0x8, addend: 0x0, symName: __ZNSt10_Head_baseILm0ERKxLb0EE7_M_headERS2_, symObjAddr: 0x1A6B, symBinAddr: 0x100002519, symSize: 0x11 }
  - { offsetInCU: 0x23322, offset: 0x23322, size: 0x8, addend: 0x0, symName: __ZSt12__get_helperILm0ERKxJEERT0_RSt11_Tuple_implIXT_EJS2_DpT1_EE, symObjAddr: 0x1A37, symBinAddr: 0x1000024E5, symSize: 0x1A }
  - { offsetInCU: 0x2332A, offset: 0x2332A, size: 0x8, addend: 0x0, symName: __ZNSt11_Tuple_implILm0EJRKxEE7_M_headERS2_, symObjAddr: 0x1A51, symBinAddr: 0x1000024FF, symSize: 0x1A }
  - { offsetInCU: 0x2336B, offset: 0x2336B, size: 0x8, addend: 0x0, symName: __ZSt7forwardIRKxEOT_RNSt16remove_referenceIS2_E4typeE, symObjAddr: 0x1A29, symBinAddr: 0x1000024D7, symSize: 0xE }
  - { offsetInCU: 0x23373, offset: 0x23373, size: 0x8, addend: 0x0, symName: __ZSt12__get_helperILm0ERKxJEERT0_RSt11_Tuple_implIXT_EJS2_DpT1_EE, symObjAddr: 0x1A37, symBinAddr: 0x1000024E5, symSize: 0x1A }
  - { offsetInCU: 0x233D2, offset: 0x233D2, size: 0x8, addend: 0x0, symName: __ZSt3getILm0EJRKxEERNSt13tuple_elementIXT_ESt5tupleIJDpT0_EEE4typeERS6_, symObjAddr: 0x1A0F, symBinAddr: 0x1000024BD, symSize: 0x1A }
  - { offsetInCU: 0x233DA, offset: 0x233DA, size: 0x8, addend: 0x0, symName: __ZSt7forwardIRKxEOT_RNSt16remove_referenceIS2_E4typeE, symObjAddr: 0x1A29, symBinAddr: 0x1000024D7, symSize: 0xE }
  - { offsetInCU: 0x234AB, offset: 0x234AB, size: 0x8, addend: 0x0, symName: __ZNSt4pairIKxxEC1IJRS0_EJLm0EEJEJEEERSt5tupleIJDpT_EERS4_IJDpT1_EESt12_Index_tupleIJXspT0_EEESD_IJXspT2_EEE, symObjAddr: 0x19CE, symBinAddr: 0x10000247C, symSize: 0x41 }
  - { offsetInCU: 0x234B3, offset: 0x234B3, size: 0x8, addend: 0x0, symName: __ZSt3getILm0EJRKxEERNSt13tuple_elementIXT_ESt5tupleIJDpT0_EEE4typeERS6_, symObjAddr: 0x1A0F, symBinAddr: 0x1000024BD, symSize: 0x1A }
  - { offsetInCU: 0x23576, offset: 0x23576, size: 0x8, addend: 0x0, symName: __ZNSt4pairIKxxEC1IJRS0_EJEEESt21piecewise_construct_tSt5tupleIJDpT_EES5_IJDpT0_EE, symObjAddr: 0x19A4, symBinAddr: 0x100002452, symSize: 0x2A }
  - { offsetInCU: 0x2357E, offset: 0x2357E, size: 0x8, addend: 0x0, symName: __ZNSt4pairIKxxEC1IJRS0_EJLm0EEJEJEEERSt5tupleIJDpT_EERS4_IJDpT1_EESt12_Index_tupleIJXspT0_EEESD_IJXspT2_EEE, symObjAddr: 0x19CE, symBinAddr: 0x10000247C, symSize: 0x41 }
  - { offsetInCU: 0x235DA, offset: 0x235DA, size: 0x8, addend: 0x0, symName: __ZNSt11_Tuple_implILm0EJRKxEEC2EOS2_, symObjAddr: 0x1986, symBinAddr: 0x100002434, symSize: 0x1E }
  - { offsetInCU: 0x2360D, offset: 0x2360D, size: 0x8, addend: 0x0, symName: __ZNK9__gnu_cxx16__aligned_membufISt4pairIKxxEE7_M_addrEv, symObjAddr: 0x1978, symBinAddr: 0x100002426, symSize: 0xE }
  - { offsetInCU: 0x23615, offset: 0x23615, size: 0x8, addend: 0x0, symName: __ZNSt11_Tuple_implILm0EJRKxEEC2EOS2_, symObjAddr: 0x1986, symBinAddr: 0x100002434, symSize: 0x1E }
  - { offsetInCU: 0x23709, offset: 0x23709, size: 0x8, addend: 0x0, symName: __ZNSt5tupleIJRKxEEC1EOS2_, symObjAddr: 0x1952, symBinAddr: 0x100002400, symSize: 0x26 }
  - { offsetInCU: 0x23711, offset: 0x23711, size: 0x8, addend: 0x0, symName: __ZNK9__gnu_cxx16__aligned_membufISt4pairIKxxEE7_M_addrEv, symObjAddr: 0x1978, symBinAddr: 0x100002426, symSize: 0xE }
  - { offsetInCU: 0x23729, offset: 0x23729, size: 0x8, addend: 0x0, symName: __ZNSt15__new_allocatorISt13_Rb_tree_nodeISt4pairIKxxEEE8allocateEmPKv, symObjAddr: 0x18E2, symBinAddr: 0x100002390, symSize: 0x70 }
  - { offsetInCU: 0x23731, offset: 0x23731, size: 0x8, addend: 0x0, symName: __ZNSt5tupleIJRKxEEC1EOS2_, symObjAddr: 0x1952, symBinAddr: 0x100002400, symSize: 0x26 }
  - { offsetInCU: 0x237B4, offset: 0x237B4, size: 0x8, addend: 0x0, symName: __ZNK9__gnu_cxx16__aligned_membufISt4pairIKxxEE6_M_ptrEv, symObjAddr: 0x18C8, symBinAddr: 0x100002376, symSize: 0x1A }
  - { offsetInCU: 0x237BC, offset: 0x237BC, size: 0x8, addend: 0x0, symName: __ZNSt15__new_allocatorISt13_Rb_tree_nodeISt4pairIKxxEEE8allocateEmPKv, symObjAddr: 0x18E2, symBinAddr: 0x100002390, symSize: 0x70 }
  - { offsetInCU: 0x2388A, offset: 0x2388A, size: 0x8, addend: 0x0, symName: __ZSt7forwardIRPSt13_Rb_tree_nodeISt4pairIKxxEEEOT_RNSt16remove_referenceIS7_E4typeE, symObjAddr: 0x18B9, symBinAddr: 0x100002367, symSize: 0xF }
  - { offsetInCU: 0x238EC, offset: 0x238EC, size: 0x8, addend: 0x0, symName: __ZNSt15__new_allocatorISt13_Rb_tree_nodeISt4pairIKxxEEE10deallocateEPS4_m, symObjAddr: 0x1880, symBinAddr: 0x10000232E, symSize: 0x39 }
  - { offsetInCU: 0x238F4, offset: 0x238F4, size: 0x8, addend: 0x0, symName: __ZSt7forwardIRPSt13_Rb_tree_nodeISt4pairIKxxEEEOT_RNSt16remove_referenceIS7_E4typeE, symObjAddr: 0x18B9, symBinAddr: 0x100002367, symSize: 0xF }
  - { offsetInCU: 0x23979, offset: 0x23979, size: 0x8, addend: 0x0, symName: __ZNKSt10_Select1stISt4pairIKxxEEclERKS2_, symObjAddr: 0x186E, symBinAddr: 0x10000231C, symSize: 0x12 }
  - { offsetInCU: 0x23981, offset: 0x23981, size: 0x8, addend: 0x0, symName: __ZNSt15__new_allocatorISt13_Rb_tree_nodeISt4pairIKxxEEE10deallocateEPS4_m, symObjAddr: 0x1880, symBinAddr: 0x10000232E, symSize: 0x39 }
  - { offsetInCU: 0x239BD, offset: 0x239BD, size: 0x8, addend: 0x0, symName: __ZNKSt13_Rb_tree_nodeISt4pairIKxxEE9_M_valptrEv, symObjAddr: 0x1850, symBinAddr: 0x1000022FE, symSize: 0x1E }
  - { offsetInCU: 0x239C5, offset: 0x239C5, size: 0x8, addend: 0x0, symName: __ZNKSt10_Select1stISt4pairIKxxEEclERKS2_, symObjAddr: 0x186E, symBinAddr: 0x10000231C, symSize: 0x12 }
  - { offsetInCU: 0x23A5F, offset: 0x23A5F, size: 0x8, addend: 0x0, symName: __ZSt7forwardIRPSt18_Rb_tree_node_baseEOT_RNSt16remove_referenceIS3_E4typeE, symObjAddr: 0x1842, symBinAddr: 0x1000022F0, symSize: 0xE }
  - { offsetInCU: 0x23A67, offset: 0x23A67, size: 0x8, addend: 0x0, symName: __ZNKSt13_Rb_tree_nodeISt4pairIKxxEE9_M_valptrEv, symObjAddr: 0x1850, symBinAddr: 0x1000022FE, symSize: 0x1E }
  - { offsetInCU: 0x23AED, offset: 0x23AED, size: 0x8, addend: 0x0, symName: __ZNSt4pairIPSt18_Rb_tree_node_baseS1_EC1IRPSt13_Rb_tree_nodeIS_IKxxEERS1_Lb1EEEOT_OT0_, symObjAddr: 0x17FE, symBinAddr: 0x1000022AC, symSize: 0x44 }
  - { offsetInCU: 0x23AF5, offset: 0x23AF5, size: 0x8, addend: 0x0, symName: __ZSt7forwardIRPSt18_Rb_tree_node_baseEOT_RNSt16remove_referenceIS3_E4typeE, symObjAddr: 0x1842, symBinAddr: 0x1000022F0, symSize: 0xE }
  - { offsetInCU: 0x23AF6, offset: 0x23AF6, size: 0x8, addend: 0x0, symName: __ZNSt8_Rb_treeIxSt4pairIKxxESt10_Select1stIS2_ESt4lessIxESaIS2_EE17_M_construct_nodeIJRKSt21piecewise_construct_tSt5tupleIJRS1_EESD_IJEEEEEvPSt13_Rb_tree_nodeIS2_EDpOT_, symObjAddr: 0x1642, symBinAddr: 0x1000020F0, symSize: 0x1BC }
  - { offsetInCU: 0x23AFE, offset: 0x23AFE, size: 0x8, addend: 0x0, symName: __ZNSt4pairIPSt18_Rb_tree_node_baseS1_EC1IRPSt13_Rb_tree_nodeIS_IKxxEERS1_Lb1EEEOT_OT0_, symObjAddr: 0x17FE, symBinAddr: 0x1000022AC, symSize: 0x44 }
  - { offsetInCU: 0x23C44, offset: 0x23C44, size: 0x8, addend: 0x0, symName: __ZNSt8_Rb_treeIxSt4pairIKxxESt10_Select1stIS2_ESt4lessIxESaIS2_EE11_M_get_nodeEv, symObjAddr: 0x1602, symBinAddr: 0x1000020B0, symSize: 0x40 }
  - { offsetInCU: 0x23D1F, offset: 0x23D1F, size: 0x8, addend: 0x0, symName: __ZNSt8_Rb_treeIxSt4pairIKxxESt10_Select1stIS2_ESt4lessIxESaIS2_EE21_M_get_Node_allocatorEv, symObjAddr: 0x15F4, symBinAddr: 0x1000020A2, symSize: 0xE }
  - { offsetInCU: 0x23D27, offset: 0x23D27, size: 0x8, addend: 0x0, symName: __ZNSt8_Rb_treeIxSt4pairIKxxESt10_Select1stIS2_ESt4lessIxESaIS2_EE11_M_get_nodeEv, symObjAddr: 0x1602, symBinAddr: 0x1000020B0, symSize: 0x40 }
  - { offsetInCU: 0x23D54, offset: 0x23D54, size: 0x8, addend: 0x0, symName: __ZN9__gnu_cxx16__aligned_membufISt4pairIKxxEE7_M_addrEv, symObjAddr: 0x15E6, symBinAddr: 0x100002094, symSize: 0xE }
  - { offsetInCU: 0x23D5C, offset: 0x23D5C, size: 0x8, addend: 0x0, symName: __ZNSt8_Rb_treeIxSt4pairIKxxESt10_Select1stIS2_ESt4lessIxESaIS2_EE21_M_get_Node_allocatorEv, symObjAddr: 0x15F4, symBinAddr: 0x1000020A2, symSize: 0xE }
  - { offsetInCU: 0x23D87, offset: 0x23D87, size: 0x8, addend: 0x0, symName: __ZNSt8_Rb_treeIxSt4pairIKxxESt10_Select1stIS2_ESt4lessIxESaIS2_EE14_M_insert_nodeEPSt18_Rb_tree_node_baseSA_PSt13_Rb_tree_nodeIS2_E, symObjAddr: 0x1522, symBinAddr: 0x100001FD0, symSize: 0xC4 }
  - { offsetInCU: 0x23E0A, offset: 0x23E0A, size: 0x8, addend: 0x0, symName: __ZNSt8_Rb_treeIxSt4pairIKxxESt10_Select1stIS2_ESt4lessIxESaIS2_EE6_S_keyEPKSt13_Rb_tree_nodeIS2_E, symObjAddr: 0x14F6, symBinAddr: 0x100001FA4, symSize: 0x2C }
  - { offsetInCU: 0x23E12, offset: 0x23E12, size: 0x8, addend: 0x0, symName: __ZNSt8_Rb_treeIxSt4pairIKxxESt10_Select1stIS2_ESt4lessIxESaIS2_EE14_M_insert_nodeEPSt18_Rb_tree_node_baseSA_PSt13_Rb_tree_nodeIS2_E, symObjAddr: 0x1522, symBinAddr: 0x100001FD0, symSize: 0xC4 }
  - { offsetInCU: 0x23E3C, offset: 0x23E3C, size: 0x8, addend: 0x0, symName: __ZNSt17_Rb_tree_iteratorISt4pairIKxxEEmmEv, symObjAddr: 0x14CE, symBinAddr: 0x100001F7C, symSize: 0x28 }
  - { offsetInCU: 0x23E44, offset: 0x23E44, size: 0x8, addend: 0x0, symName: __ZNSt8_Rb_treeIxSt4pairIKxxESt10_Select1stIS2_ESt4lessIxESaIS2_EE6_S_keyEPKSt13_Rb_tree_nodeIS2_E, symObjAddr: 0x14F6, symBinAddr: 0x100001FA4, symSize: 0x2C }
  - { offsetInCU: 0x23EFF, offset: 0x23EFF, size: 0x8, addend: 0x0, symName: __ZNSt4pairIPSt18_Rb_tree_node_baseS1_EC1IRS1_S4_Lb1EEEOT_OT0_, symObjAddr: 0x148A, symBinAddr: 0x100001F38, symSize: 0x44 }
  - { offsetInCU: 0x23F07, offset: 0x23F07, size: 0x8, addend: 0x0, symName: __ZNSt17_Rb_tree_iteratorISt4pairIKxxEEmmEv, symObjAddr: 0x14CE, symBinAddr: 0x100001F7C, symSize: 0x28 }
  - { offsetInCU: 0x23F21, offset: 0x23F21, size: 0x8, addend: 0x0, symName: __ZNSt8_Rb_treeIxSt4pairIKxxESt10_Select1stIS2_ESt4lessIxESaIS2_EE11_M_leftmostEv, symObjAddr: 0x1478, symBinAddr: 0x100001F26, symSize: 0x12 }
  - { offsetInCU: 0x23F29, offset: 0x23F29, size: 0x8, addend: 0x0, symName: __ZNSt4pairIPSt18_Rb_tree_node_baseS1_EC1IRS1_S4_Lb1EEEOT_OT0_, symObjAddr: 0x148A, symBinAddr: 0x100001F38, symSize: 0x44 }
  - { offsetInCU: 0x23F51, offset: 0x23F51, size: 0x8, addend: 0x0, symName: __ZNSt8_Rb_treeIxSt4pairIKxxESt10_Select1stIS2_ESt4lessIxESaIS2_EE24_M_get_insert_unique_posERS1_, symObjAddr: 0x1302, symBinAddr: 0x100001DB0, symSize: 0x176 }
  - { offsetInCU: 0x24083, offset: 0x24083, size: 0x8, addend: 0x0, symName: __ZNSt4pairIPSt18_Rb_tree_node_baseS1_EC1IS1_S1_Lb1EEERKS1_S5_, symObjAddr: 0x12D2, symBinAddr: 0x100001D80, symSize: 0x30 }
  - { offsetInCU: 0x2408B, offset: 0x2408B, size: 0x8, addend: 0x0, symName: __ZNSt8_Rb_treeIxSt4pairIKxxESt10_Select1stIS2_ESt4lessIxESaIS2_EE24_M_get_insert_unique_posERS1_, symObjAddr: 0x1302, symBinAddr: 0x100001DB0, symSize: 0x176 }
  - { offsetInCU: 0x240A7, offset: 0x240A7, size: 0x8, addend: 0x0, symName: __ZNSt8_Rb_treeIxSt4pairIKxxESt10_Select1stIS2_ESt4lessIxESaIS2_EE6_S_keyEPKSt18_Rb_tree_node_base, symObjAddr: 0x12B8, symBinAddr: 0x100001D66, symSize: 0x1A }
  - { offsetInCU: 0x240AF, offset: 0x240AF, size: 0x8, addend: 0x0, symName: __ZNSt4pairIPSt18_Rb_tree_node_baseS1_EC1IS1_S1_Lb1EEERKS1_S5_, symObjAddr: 0x12D2, symBinAddr: 0x100001D80, symSize: 0x30 }
  - { offsetInCU: 0x240D9, offset: 0x240D9, size: 0x8, addend: 0x0, symName: __ZNSt8_Rb_treeIxSt4pairIKxxESt10_Select1stIS2_ESt4lessIxESaIS2_EE12_M_rightmostEv, symObjAddr: 0x12A6, symBinAddr: 0x100001D54, symSize: 0x12 }
  - { offsetInCU: 0x240E1, offset: 0x240E1, size: 0x8, addend: 0x0, symName: __ZNSt8_Rb_treeIxSt4pairIKxxESt10_Select1stIS2_ESt4lessIxESaIS2_EE6_S_keyEPKSt18_Rb_tree_node_base, symObjAddr: 0x12B8, symBinAddr: 0x100001D66, symSize: 0x1A }
  - { offsetInCU: 0x24109, offset: 0x24109, size: 0x8, addend: 0x0, symName: __ZNKSt23_Rb_tree_const_iteratorISt4pairIKxxEE13_M_const_castEv, symObjAddr: 0x127E, symBinAddr: 0x100001D2C, symSize: 0x28 }
  - { offsetInCU: 0x24111, offset: 0x24111, size: 0x8, addend: 0x0, symName: __ZNSt8_Rb_treeIxSt4pairIKxxESt10_Select1stIS2_ESt4lessIxESaIS2_EE12_M_rightmostEv, symObjAddr: 0x12A6, symBinAddr: 0x100001D54, symSize: 0x12 }
  - { offsetInCU: 0x24139, offset: 0x24139, size: 0x8, addend: 0x0, symName: __ZNSt8_Rb_treeIxSt4pairIKxxESt10_Select1stIS2_ESt4lessIxESaIS2_EE14_M_create_nodeIJRKSt21piecewise_construct_tSt5tupleIJRS1_EESD_IJEEEEEPSt13_Rb_tree_nodeIS2_EDpOT_, symObjAddr: 0x1202, symBinAddr: 0x100001CB0, symSize: 0x7C }
  - { offsetInCU: 0x2421E, offset: 0x2421E, size: 0x8, addend: 0x0, symName: __ZNSt10_Head_baseILm0ERKxLb0EEC2ES1_, symObjAddr: 0x11E8, symBinAddr: 0x100001C96, symSize: 0x1A }
  - { offsetInCU: 0x24226, offset: 0x24226, size: 0x8, addend: 0x0, symName: __ZNSt8_Rb_treeIxSt4pairIKxxESt10_Select1stIS2_ESt4lessIxESaIS2_EE14_M_create_nodeIJRKSt21piecewise_construct_tSt5tupleIJRS1_EESD_IJEEEEEPSt13_Rb_tree_nodeIS2_EDpOT_, symObjAddr: 0x1202, symBinAddr: 0x100001CB0, symSize: 0x7C }
  - { offsetInCU: 0x24233, offset: 0x24233, size: 0x8, addend: 0x0, symName: __ZNSt8_Rb_treeIxSt4pairIKxxESt10_Select1stIS2_ESt4lessIxESaIS2_EE14_M_lower_boundEPSt13_Rb_tree_nodeIS2_EPSt18_Rb_tree_node_baseRS1_, symObjAddr: 0x1152, symBinAddr: 0x100001C00, symSize: 0x96 }
  - { offsetInCU: 0x242A1, offset: 0x242A1, size: 0x8, addend: 0x0, symName: __ZNSt8_Rb_treeIxSt4pairIKxxESt10_Select1stIS2_ESt4lessIxESaIS2_EE6_M_endEv, symObjAddr: 0x1140, symBinAddr: 0x100001BEE, symSize: 0x12 }
  - { offsetInCU: 0x242A9, offset: 0x242A9, size: 0x8, addend: 0x0, symName: __ZNSt8_Rb_treeIxSt4pairIKxxESt10_Select1stIS2_ESt4lessIxESaIS2_EE14_M_lower_boundEPSt13_Rb_tree_nodeIS2_EPSt18_Rb_tree_node_baseRS1_, symObjAddr: 0x1152, symBinAddr: 0x100001C00, symSize: 0x96 }
  - { offsetInCU: 0x242D1, offset: 0x242D1, size: 0x8, addend: 0x0, symName: __ZNSt8_Rb_treeIxSt4pairIKxxESt10_Select1stIS2_ESt4lessIxESaIS2_EE11_M_put_nodeEPSt13_Rb_tree_nodeIS2_E, symObjAddr: 0x10F4, symBinAddr: 0x100001BA2, symSize: 0x4C }
  - { offsetInCU: 0x24354, offset: 0x24354, size: 0x8, addend: 0x0, symName: __ZNSt8_Rb_treeIxSt4pairIKxxESt10_Select1stIS2_ESt4lessIxESaIS2_EE15_M_destroy_nodeEPSt13_Rb_tree_nodeIS2_E, symObjAddr: 0x10A6, symBinAddr: 0x100001B54, symSize: 0x4E }
  - { offsetInCU: 0x24400, offset: 0x24400, size: 0x8, addend: 0x0, symName: __ZN9__gnu_cxx16__aligned_membufISt4pairIKxxEE6_M_ptrEv, symObjAddr: 0x108C, symBinAddr: 0x100001B3A, symSize: 0x1A }
  - { offsetInCU: 0x24408, offset: 0x24408, size: 0x8, addend: 0x0, symName: __ZNSt8_Rb_treeIxSt4pairIKxxESt10_Select1stIS2_ESt4lessIxESaIS2_EE15_M_destroy_nodeEPSt13_Rb_tree_nodeIS2_E, symObjAddr: 0x10A6, symBinAddr: 0x100001B54, symSize: 0x4E }
  - { offsetInCU: 0x2449B, offset: 0x2449B, size: 0x8, addend: 0x0, symName: __ZNSt17_Rb_tree_iteratorISt4pairIKxxEEC1EPSt18_Rb_tree_node_base, symObjAddr: 0x1072, symBinAddr: 0x100001B20, symSize: 0x1A }
  - { offsetInCU: 0x244A3, offset: 0x244A3, size: 0x8, addend: 0x0, symName: __ZN9__gnu_cxx16__aligned_membufISt4pairIKxxEE6_M_ptrEv, symObjAddr: 0x108C, symBinAddr: 0x100001B3A, symSize: 0x1A }
  - { offsetInCU: 0x24494, offset: 0x24494, size: 0x8, addend: 0x0, symName: __ZNSt8_Rb_treeIxSt4pairIKxxESt10_Select1stIS2_ESt4lessIxESaIS2_EE10_Auto_node9_M_insertES0_IPSt18_Rb_tree_node_baseSB_E, symObjAddr: 0x101C, symBinAddr: 0x100001ACA, symSize: 0x56 }
  - { offsetInCU: 0x244ED, offset: 0x244ED, size: 0x8, addend: 0x0, symName: __ZNKSt8_Rb_treeIxSt4pairIKxxESt10_Select1stIS2_ESt4lessIxESaIS2_EE10_Auto_node6_M_keyEv, symObjAddr: 0xFFE, symBinAddr: 0x100001AAC, symSize: 0x1E }
  - { offsetInCU: 0x244F5, offset: 0x244F5, size: 0x8, addend: 0x0, symName: __ZNSt8_Rb_treeIxSt4pairIKxxESt10_Select1stIS2_ESt4lessIxESaIS2_EE10_Auto_node9_M_insertES0_IPSt18_Rb_tree_node_baseSB_E, symObjAddr: 0x101C, symBinAddr: 0x100001ACA, symSize: 0x56 }
  - { offsetInCU: 0x2451D, offset: 0x2451D, size: 0x8, addend: 0x0, symName: __ZNSt8_Rb_treeIxSt4pairIKxxESt10_Select1stIS2_ESt4lessIxESaIS2_EE29_M_get_insert_hint_unique_posESt23_Rb_tree_const_iteratorIS2_ERS1_, symObjAddr: 0xBB0, symBinAddr: 0x10000165E, symSize: 0x44E }
  - { offsetInCU: 0x24525, offset: 0x24525, size: 0x8, addend: 0x0, symName: __ZNKSt8_Rb_treeIxSt4pairIKxxESt10_Select1stIS2_ESt4lessIxESaIS2_EE10_Auto_node6_M_keyEv, symObjAddr: 0xFFE, symBinAddr: 0x100001AAC, symSize: 0x1E }
  - { offsetInCU: 0x24659, offset: 0x24659, size: 0x8, addend: 0x0, symName: __ZNSt8_Rb_treeIxSt4pairIKxxESt10_Select1stIS2_ESt4lessIxESaIS2_EE10_Auto_nodeD1Ev, symObjAddr: 0xB7A, symBinAddr: 0x100001628, symSize: 0x36 }
  - { offsetInCU: 0x24661, offset: 0x24661, size: 0x8, addend: 0x0, symName: __ZNSt8_Rb_treeIxSt4pairIKxxESt10_Select1stIS2_ESt4lessIxESaIS2_EE29_M_get_insert_hint_unique_posESt23_Rb_tree_const_iteratorIS2_ERS1_, symObjAddr: 0xBB0, symBinAddr: 0x10000165E, symSize: 0x44E }
  - { offsetInCU: 0x24732, offset: 0x24732, size: 0x8, addend: 0x0, symName: __ZNSt8_Rb_treeIxSt4pairIKxxESt10_Select1stIS2_ESt4lessIxESaIS2_EE10_Auto_nodeC1IJRKSt21piecewise_construct_tSt5tupleIJRS1_EESE_IJEEEEERS8_DpOT_, symObjAddr: 0xAFE, symBinAddr: 0x1000015AC, symSize: 0x7C }
  - { offsetInCU: 0x24783, offset: 0x24783, size: 0x8, addend: 0x0, symName: __ZSt7forwardISt5tupleIJEEEOT_RNSt16remove_referenceIS2_E4typeE, symObjAddr: 0xAF0, symBinAddr: 0x10000159E, symSize: 0xE }
  - { offsetInCU: 0x2478B, offset: 0x2478B, size: 0x8, addend: 0x0, symName: __ZNSt8_Rb_treeIxSt4pairIKxxESt10_Select1stIS2_ESt4lessIxESaIS2_EE10_Auto_nodeC1IJRKSt21piecewise_construct_tSt5tupleIJRS1_EESE_IJEEEEERS8_DpOT_, symObjAddr: 0xAFE, symBinAddr: 0x1000015AC, symSize: 0x7C }
  - { offsetInCU: 0x247EE, offset: 0x247EE, size: 0x8, addend: 0x0, symName: __ZSt7forwardISt5tupleIJRKxEEEOT_RNSt16remove_referenceIS4_E4typeE, symObjAddr: 0xAE2, symBinAddr: 0x100001590, symSize: 0xE }
  - { offsetInCU: 0x247F6, offset: 0x247F6, size: 0x8, addend: 0x0, symName: __ZSt7forwardISt5tupleIJEEEOT_RNSt16remove_referenceIS2_E4typeE, symObjAddr: 0xAF0, symBinAddr: 0x10000159E, symSize: 0xE }
  - { offsetInCU: 0x2484E, offset: 0x2484E, size: 0x8, addend: 0x0, symName: __ZSt7forwardIRKSt21piecewise_construct_tEOT_RNSt16remove_referenceIS3_E4typeE, symObjAddr: 0xAD4, symBinAddr: 0x100001582, symSize: 0xE }
  - { offsetInCU: 0x24856, offset: 0x24856, size: 0x8, addend: 0x0, symName: __ZSt7forwardISt5tupleIJRKxEEEOT_RNSt16remove_referenceIS4_E4typeE, symObjAddr: 0xAE2, symBinAddr: 0x100001590, symSize: 0xE }
  - { offsetInCU: 0x24873, offset: 0x24873, size: 0x8, addend: 0x0, symName: __ZNSt11_Tuple_implILm0EJRKxEEC2ES1_, symObjAddr: 0xAAE, symBinAddr: 0x10000155C, symSize: 0x26 }
  - { offsetInCU: 0x2487B, offset: 0x2487B, size: 0x8, addend: 0x0, symName: __ZSt7forwardIRKSt21piecewise_construct_tEOT_RNSt16remove_referenceIS3_E4typeE, symObjAddr: 0xAD4, symBinAddr: 0x100001582, symSize: 0xE }
  - { offsetInCU: 0x24889, offset: 0x24889, size: 0x8, addend: 0x0, symName: __ZNKSt8_Rb_treeIxSt4pairIKxxESt10_Select1stIS2_ESt4lessIxESaIS2_EE8key_compEv, symObjAddr: 0xAA2, symBinAddr: 0x100001550, symSize: 0xC }
  - { offsetInCU: 0x248B9, offset: 0x248B9, size: 0x8, addend: 0x0, symName: __ZNSt8_Rb_treeIxSt4pairIKxxESt10_Select1stIS2_ESt4lessIxESaIS2_EE11lower_boundERS1_, symObjAddr: 0xA56, symBinAddr: 0x100001504, symSize: 0x4C }
  - { offsetInCU: 0x248FD, offset: 0x248FD, size: 0x8, addend: 0x0, symName: __ZNKSt8_Rb_treeIxSt4pairIKxxESt10_Select1stIS2_ESt4lessIxESaIS2_EE9_M_mbeginEv, symObjAddr: 0xA44, symBinAddr: 0x1000014F2, symSize: 0x12 }
  - { offsetInCU: 0x24905, offset: 0x24905, size: 0x8, addend: 0x0, symName: __ZNSt8_Rb_treeIxSt4pairIKxxESt10_Select1stIS2_ESt4lessIxESaIS2_EE11lower_boundERS1_, symObjAddr: 0xA56, symBinAddr: 0x100001504, symSize: 0x4C }
  - { offsetInCU: 0x2492D, offset: 0x2492D, size: 0x8, addend: 0x0, symName: __ZNSt8_Rb_treeIxSt4pairIKxxESt10_Select1stIS2_ESt4lessIxESaIS2_EE12_M_drop_nodeEPSt13_Rb_tree_nodeIS2_E, symObjAddr: 0xA0A, symBinAddr: 0x1000014B8, symSize: 0x3A }
  - { offsetInCU: 0x24971, offset: 0x24971, size: 0x8, addend: 0x0, symName: __ZNSt8_Rb_treeIxSt4pairIKxxESt10_Select1stIS2_ESt4lessIxESaIS2_EE7_S_leftEPSt18_Rb_tree_node_base, symObjAddr: 0x9F8, symBinAddr: 0x1000014A6, symSize: 0x12 }
  - { offsetInCU: 0x24979, offset: 0x24979, size: 0x8, addend: 0x0, symName: __ZNSt8_Rb_treeIxSt4pairIKxxESt10_Select1stIS2_ESt4lessIxESaIS2_EE12_M_drop_nodeEPSt13_Rb_tree_nodeIS2_E, symObjAddr: 0xA0A, symBinAddr: 0x1000014B8, symSize: 0x3A }
  - { offsetInCU: 0x249A3, offset: 0x249A3, size: 0x8, addend: 0x0, symName: __ZNSt8_Rb_treeIxSt4pairIKxxESt10_Select1stIS2_ESt4lessIxESaIS2_EE8_S_rightEPSt18_Rb_tree_node_base, symObjAddr: 0x9E6, symBinAddr: 0x100001494, symSize: 0x12 }
  - { offsetInCU: 0x249AB, offset: 0x249AB, size: 0x8, addend: 0x0, symName: __ZNSt8_Rb_treeIxSt4pairIKxxESt10_Select1stIS2_ESt4lessIxESaIS2_EE7_S_leftEPSt18_Rb_tree_node_base, symObjAddr: 0x9F8, symBinAddr: 0x1000014A6, symSize: 0x12 }
  - { offsetInCU: 0x249EE, offset: 0x249EE, size: 0x8, addend: 0x0, symName: __ZNKSt8_Rb_treeIxSt4pairIKxxESt10_Select1stIS2_ESt4lessIxESaIS2_EE4sizeEv, symObjAddr: 0x9D4, symBinAddr: 0x100001482, symSize: 0x12 }
  - { offsetInCU: 0x249F6, offset: 0x249F6, size: 0x8, addend: 0x0, symName: __ZNSt8_Rb_treeIxSt4pairIKxxESt10_Select1stIS2_ESt4lessIxESaIS2_EE8_S_rightEPSt18_Rb_tree_node_base, symObjAddr: 0x9E6, symBinAddr: 0x100001494, symSize: 0x12 }
  - { offsetInCU: 0x24A1E, offset: 0x24A1E, size: 0x8, addend: 0x0, symName: __ZNSt13_Rb_tree_nodeISt4pairIKxxEE9_M_valptrEv, symObjAddr: 0x9B6, symBinAddr: 0x100001464, symSize: 0x1E }
  - { offsetInCU: 0x24A26, offset: 0x24A26, size: 0x8, addend: 0x0, symName: __ZNKSt8_Rb_treeIxSt4pairIKxxESt10_Select1stIS2_ESt4lessIxESaIS2_EE4sizeEv, symObjAddr: 0x9D4, symBinAddr: 0x100001482, symSize: 0x12 }
  - { offsetInCU: 0x24A4E, offset: 0x24A4E, size: 0x8, addend: 0x0, symName: __ZNSt8_Rb_treeIxSt4pairIKxxESt10_Select1stIS2_ESt4lessIxESaIS2_EE3endEv, symObjAddr: 0x98C, symBinAddr: 0x10000143A, symSize: 0x2A }
  - { offsetInCU: 0x24A7E, offset: 0x24A7E, size: 0x8, addend: 0x0, symName: __ZNSt8_Rb_treeIxSt4pairIKxxESt10_Select1stIS2_ESt4lessIxESaIS2_EE5beginEv, symObjAddr: 0x962, symBinAddr: 0x100001410, symSize: 0x2A }
  - { offsetInCU: 0x24AAE, offset: 0x24AAE, size: 0x8, addend: 0x0, symName: __ZNSt8_Rb_treeIxSt4pairIKxxESt10_Select1stIS2_ESt4lessIxESaIS2_EE22_M_emplace_hint_uniqueIJRKSt21piecewise_construct_tSt5tupleIJRS1_EESD_IJEEEEESt17_Rb_tree_iteratorIS2_ESt23_Rb_tree_const_iteratorIS2_EDpOT_, symObjAddr: 0x866, symBinAddr: 0x100001314, symSize: 0xFC }
  - { offsetInCU: 0x24AB6, offset: 0x24AB6, size: 0x8, addend: 0x0, symName: __ZNSt8_Rb_treeIxSt4pairIKxxESt10_Select1stIS2_ESt4lessIxESaIS2_EE5beginEv, symObjAddr: 0x962, symBinAddr: 0x100001410, symSize: 0x2A }
  - { offsetInCU: 0x24BE7, offset: 0x24BE7, size: 0x8, addend: 0x0, symName: __ZNSt23_Rb_tree_const_iteratorISt4pairIKxxEEC1ERKSt17_Rb_tree_iteratorIS2_E, symObjAddr: 0x848, symBinAddr: 0x1000012F6, symSize: 0x1E }
  - { offsetInCU: 0x24C31, offset: 0x24C31, size: 0x8, addend: 0x0, symName: __ZNSt5tupleIJRKxEEC1ILb1ELb1EEES1_, symObjAddr: 0x822, symBinAddr: 0x1000012D0, symSize: 0x26 }
  - { offsetInCU: 0x24C39, offset: 0x24C39, size: 0x8, addend: 0x0, symName: __ZNSt23_Rb_tree_const_iteratorISt4pairIKxxEEC1ERKSt17_Rb_tree_iteratorIS2_E, symObjAddr: 0x848, symBinAddr: 0x1000012F6, symSize: 0x1E }
  - { offsetInCU: 0x24C57, offset: 0x24C57, size: 0x8, addend: 0x0, symName: __ZNKSt4lessIxEclERKxS2_, symObjAddr: 0x7FC, symBinAddr: 0x1000012AA, symSize: 0x26 }
  - { offsetInCU: 0x24C5F, offset: 0x24C5F, size: 0x8, addend: 0x0, symName: __ZNSt5tupleIJRKxEEC1ILb1ELb1EEES1_, symObjAddr: 0x822, symBinAddr: 0x1000012D0, symSize: 0x26 }
  - { offsetInCU: 0x24CAF, offset: 0x24CAF, size: 0x8, addend: 0x0, symName: __ZNKSt3mapIxxSt4lessIxESaISt4pairIKxxEEE8key_compEv, symObjAddr: 0x7E0, symBinAddr: 0x10000128E, symSize: 0x1C }
  - { offsetInCU: 0x24D18, offset: 0x24D18, size: 0x8, addend: 0x0, symName: __ZSteqRKSt17_Rb_tree_iteratorISt4pairIKxxEES5_, symObjAddr: 0x7BD, symBinAddr: 0x10000126B, symSize: 0x23 }
  - { offsetInCU: 0x24D3C, offset: 0x24D3C, size: 0x8, addend: 0x0, symName: __ZNSt3mapIxxSt4lessIxESaISt4pairIKxxEEE11lower_boundERS3_, symObjAddr: 0x798, symBinAddr: 0x100001246, symSize: 0x25 }
  - { offsetInCU: 0x24D44, offset: 0x24D44, size: 0x8, addend: 0x0, symName: __ZSteqRKSt17_Rb_tree_iteratorISt4pairIKxxEES5_, symObjAddr: 0x7BD, symBinAddr: 0x10000126B, symSize: 0x23 }
  - { offsetInCU: 0x24D80, offset: 0x24D80, size: 0x8, addend: 0x0, symName: __ZNSt8_Rb_treeIxSt4pairIKxxESt10_Select1stIS2_ESt4lessIxESaIS2_EE8_M_beginEv, symObjAddr: 0x77E, symBinAddr: 0x10000122C, symSize: 0x1A }
  - { offsetInCU: 0x24D88, offset: 0x24D88, size: 0x8, addend: 0x0, symName: __ZNSt3mapIxxSt4lessIxESaISt4pairIKxxEEE11lower_boundERS3_, symObjAddr: 0x798, symBinAddr: 0x100001246, symSize: 0x25 }
  - { offsetInCU: 0x24DB0, offset: 0x24DB0, size: 0x8, addend: 0x0, symName: __ZNSt8_Rb_treeIxSt4pairIKxxESt10_Select1stIS2_ESt4lessIxESaIS2_EE8_M_eraseEPSt13_Rb_tree_nodeIS2_E, symObjAddr: 0x718, symBinAddr: 0x1000011C6, symSize: 0x66 }
  - { offsetInCU: 0x24DB8, offset: 0x24DB8, size: 0x8, addend: 0x0, symName: __ZNSt8_Rb_treeIxSt4pairIKxxESt10_Select1stIS2_ESt4lessIxESaIS2_EE8_M_beginEv, symObjAddr: 0x77E, symBinAddr: 0x10000122C, symSize: 0x1A }
  - { offsetInCU: 0x24E7F, offset: 0x24E7F, size: 0x8, addend: 0x0, symName: __ZNSt15__new_allocatorISt13_Rb_tree_nodeISt4pairIKxxEEED2Ev, symObjAddr: 0x70C, symBinAddr: 0x1000011BA, symSize: 0xC }
  - { offsetInCU: 0x24EB6, offset: 0x24EB6, size: 0x8, addend: 0x0, symName: __ZNSt20_Rb_tree_key_compareISt4lessIxEEC2Ev, symObjAddr: 0x700, symBinAddr: 0x1000011AE, symSize: 0xC }
  - { offsetInCU: 0x24ED1, offset: 0x24ED1, size: 0x8, addend: 0x0, symName: __ZNKSt3mapIxxSt4lessIxESaISt4pairIKxxEEE4sizeEv, symObjAddr: 0x6E6, symBinAddr: 0x100001194, symSize: 0x1A }
  - { offsetInCU: 0x24ED9, offset: 0x24ED9, size: 0x8, addend: 0x0, symName: __ZNSt20_Rb_tree_key_compareISt4lessIxEEC2Ev, symObjAddr: 0x700, symBinAddr: 0x1000011AE, symSize: 0xC }
  - { offsetInCU: 0x24F01, offset: 0x24F01, size: 0x8, addend: 0x0, symName: __ZNKSt17_Rb_tree_iteratorISt4pairIKxxEEdeEv, symObjAddr: 0x6C8, symBinAddr: 0x100001176, symSize: 0x1E }
  - { offsetInCU: 0x24F31, offset: 0x24F31, size: 0x8, addend: 0x0, symName: __ZNSt17_Rb_tree_iteratorISt4pairIKxxEEppEv, symObjAddr: 0x6A0, symBinAddr: 0x10000114E, symSize: 0x28 }
  - { offsetInCU: 0x24F39, offset: 0x24F39, size: 0x8, addend: 0x0, symName: __ZNKSt17_Rb_tree_iteratorISt4pairIKxxEEdeEv, symObjAddr: 0x6C8, symBinAddr: 0x100001176, symSize: 0x1E }
  - { offsetInCU: 0x24F9A, offset: 0x24F9A, size: 0x8, addend: 0x0, symName: __ZStneRKSt17_Rb_tree_iteratorISt4pairIKxxEES5_, symObjAddr: 0x67E, symBinAddr: 0x10000112C, symSize: 0x22 }
  - { offsetInCU: 0x24FA2, offset: 0x24FA2, size: 0x8, addend: 0x0, symName: __ZNSt17_Rb_tree_iteratorISt4pairIKxxEEppEv, symObjAddr: 0x6A0, symBinAddr: 0x10000114E, symSize: 0x28 }
  - { offsetInCU: 0x24FB4, offset: 0x24FB4, size: 0x8, addend: 0x0, symName: __ZNSt3mapIxxSt4lessIxESaISt4pairIKxxEEE3endEv, symObjAddr: 0x664, symBinAddr: 0x100001112, symSize: 0x1A }
  - { offsetInCU: 0x24FBC, offset: 0x24FBC, size: 0x8, addend: 0x0, symName: __ZStneRKSt17_Rb_tree_iteratorISt4pairIKxxEES5_, symObjAddr: 0x67E, symBinAddr: 0x10000112C, symSize: 0x22 }
  - { offsetInCU: 0x24FE4, offset: 0x24FE4, size: 0x8, addend: 0x0, symName: __ZNSt3mapIxxSt4lessIxESaISt4pairIKxxEEE5beginEv, symObjAddr: 0x64A, symBinAddr: 0x1000010F8, symSize: 0x1A }
  - { offsetInCU: 0x24FEC, offset: 0x24FEC, size: 0x8, addend: 0x0, symName: __ZNSt3mapIxxSt4lessIxESaISt4pairIKxxEEE3endEv, symObjAddr: 0x664, symBinAddr: 0x100001112, symSize: 0x1A }
  - { offsetInCU: 0x25014, offset: 0x25014, size: 0x8, addend: 0x0, symName: __ZNSt3mapIxxSt4lessIxESaISt4pairIKxxEEEixERS3_, symObjAddr: 0x550, symBinAddr: 0x100000FFE, symSize: 0xFA }
  - { offsetInCU: 0x250DD, offset: 0x250DD, size: 0x8, addend: 0x0, symName: __ZNSt8_Rb_treeIxSt4pairIKxxESt10_Select1stIS2_ESt4lessIxESaIS2_EED1Ev, symObjAddr: 0x516, symBinAddr: 0x100000FC4, symSize: 0x3A }
  - { offsetInCU: 0x25163, offset: 0x25163, size: 0x8, addend: 0x0, symName: __ZNSt8_Rb_treeIxSt4pairIKxxESt10_Select1stIS2_ESt4lessIxESaIS2_EE13_Rb_tree_implIS6_Lb1EEC1Ev, symObjAddr: 0x4D8, symBinAddr: 0x100000F86, symSize: 0x3E }
  - { offsetInCU: 0x2518B, offset: 0x2518B, size: 0x8, addend: 0x0, symName: _main, symObjAddr: 0x26C, symBinAddr: 0x100000D1A, symSize: 0x26C }
  - { offsetInCU: 0x25193, offset: 0x25193, size: 0x8, addend: 0x0, symName: __ZNSt8_Rb_treeIxSt4pairIKxxESt10_Select1stIS2_ESt4lessIxESaIS2_EE13_Rb_tree_implIS6_Lb1EEC1Ev, symObjAddr: 0x4D8, symBinAddr: 0x100000F86, symSize: 0x3E }
  - { offsetInCU: 0x252CC, offset: 0x252CC, size: 0x8, addend: 0x0, symName: __Z8big_chakx, symObjAddr: 0x207, symBinAddr: 0x100000CB5, symSize: 0x65 }
  - { offsetInCU: 0x252D4, offset: 0x252D4, size: 0x8, addend: 0x0, symName: _main, symObjAddr: 0x26C, symBinAddr: 0x100000D1A, symSize: 0x26C }
  - { offsetInCU: 0x25331, offset: 0x25331, size: 0x8, addend: 0x0, symName: __Z9smal_chakx, symObjAddr: 0x1C2, symBinAddr: 0x100000C70, symSize: 0x45 }
  - { offsetInCU: 0x25339, offset: 0x25339, size: 0x8, addend: 0x0, symName: __Z8big_chakx, symObjAddr: 0x207, symBinAddr: 0x100000CB5, symSize: 0x65 }
  - { offsetInCU: 0x25382, offset: 0x25382, size: 0x8, addend: 0x0, symName: __Z9big_inputxx, symObjAddr: 0x14B, symBinAddr: 0x100000BF9, symSize: 0x77 }
  - { offsetInCU: 0x2538A, offset: 0x2538A, size: 0x8, addend: 0x0, symName: __Z9smal_chakx, symObjAddr: 0x1C2, symBinAddr: 0x100000C70, symSize: 0x45 }
  - { offsetInCU: 0x253FB, offset: 0x253FB, size: 0x8, addend: 0x0, symName: __Z10smal_inputxx, symObjAddr: 0xDF, symBinAddr: 0x100000B8D, symSize: 0x6C }
  - { offsetInCU: 0x25403, offset: 0x25403, size: 0x8, addend: 0x0, symName: __Z9big_inputxx, symObjAddr: 0x14B, symBinAddr: 0x100000BF9, symSize: 0x77 }
  - { offsetInCU: 0x25496, offset: 0x25496, size: 0x8, addend: 0x0, symName: __ZNSt3mapIxxSt4lessIxESaISt4pairIKxxEEEC1Ev, symObjAddr: 0xC4, symBinAddr: 0x100000B72, symSize: 0x1B }
  - { offsetInCU: 0x2549E, offset: 0x2549E, size: 0x8, addend: 0x0, symName: __Z10smal_inputxx, symObjAddr: 0xDF, symBinAddr: 0x100000B8D, symSize: 0x6C }
  - { offsetInCU: 0x254F7, offset: 0x254F7, size: 0x8, addend: 0x0, symName: __ZNSt8_Rb_treeIxSt4pairIKxxESt10_Select1stIS2_ESt4lessIxESaIS2_EEC1Ev, symObjAddr: 0xA8, symBinAddr: 0x100000B56, symSize: 0x1C }
  - { offsetInCU: 0x25569, offset: 0x25569, size: 0x8, addend: 0x0, symName: __ZNSt8_Rb_treeIxSt4pairIKxxESt10_Select1stIS2_ESt4lessIxESaIS2_EE13_Rb_tree_implIS6_Lb1EED1Ev, symObjAddr: 0x84, symBinAddr: 0x100000B32, symSize: 0x24 }
  - { offsetInCU: 0x25571, offset: 0x25571, size: 0x8, addend: 0x0, symName: __ZNSt8_Rb_treeIxSt4pairIKxxESt10_Select1stIS2_ESt4lessIxESaIS2_EEC1Ev, symObjAddr: 0xA8, symBinAddr: 0x100000B56, symSize: 0x1C }
  - { offsetInCU: 0x25560, offset: 0x25560, size: 0x8, addend: 0x0, symName: __ZNSt15_Rb_tree_header8_M_resetEv, symObjAddr: 0x48, symBinAddr: 0x100000AF6, symSize: 0x3C }
  - { offsetInCU: 0x255C4, offset: 0x255C4, size: 0x8, addend: 0x0, symName: __ZNSt15_Rb_tree_headerC2Ev, symObjAddr: 0x22, symBinAddr: 0x100000AD0, symSize: 0x26 }
  - { offsetInCU: 0x255E5, offset: 0x255E5, size: 0x8, addend: 0x0, symName: __ZdlPvS_, symObjAddr: 0x12, symBinAddr: 0x100000AC0, symSize: 0x10 }
  - { offsetInCU: 0x25625, offset: 0x25625, size: 0x8, addend: 0x0, symName: __ZnwmPv, symObjAddr: 0x0, symBinAddr: 0x100000AAE, symSize: 0x12 }
  - { offsetInCU: 0x2562D, offset: 0x2562D, size: 0x8, addend: 0x0, symName: __ZdlPvS_, symObjAddr: 0x12, symBinAddr: 0x100000AC0, symSize: 0x10 }
...
