---
triple:          'arm64-apple-darwin'
binary-path:     '/Users/tatuya/atcoder/ABC345/C_OTS'
relocations:
  - { offsetInCU: 0xA4, offset: 0xA4, size: 0x8, addend: 0x0, symName: __ZnwmPv, symObjAddr: 0x0, symBinAddr: 0x10000437C, symSize: 0x18 }
  - { offsetInCU: 0xAC, offset: 0xAC, size: 0x8, addend: 0x0, symName: __ZSt19piecewise_construct, symObjAddr: 0x1C90, symBinAddr: 0x1000066F0, symSize: 0x0 }
  - { offsetInCU: 0x1913, offset: 0x1913, size: 0x8, addend: 0x0, symName: __ZSt19piecewise_construct, symObjAddr: 0x1C90, symBinAddr: 0x1000066F0, symSize: 0x0 }
  - { offsetInCU: 0x1C85A, offset: 0x1C85A, size: 0x8, addend: 0x0, symName: __ZStL8__ioinit, symObjAddr: 0x84238, symBinAddr: 0x10000C4D8, symSize: 0x0 }
  - { offsetInCU: 0x24A40, offset: 0x24A40, size: 0x8, addend: 0x0, symName: __ZNSt8__detail30__integer_to_chars_is_unsignedIjEE, symObjAddr: 0x1C91, symBinAddr: 0x1000066F1, symSize: 0x0 }
  - { offsetInCU: 0x24A5A, offset: 0x24A5A, size: 0x8, addend: 0x0, symName: __ZNSt8__detail30__integer_to_chars_is_unsignedImEE, symObjAddr: 0x1C92, symBinAddr: 0x1000066F2, symSize: 0x0 }
  - { offsetInCU: 0x24A74, offset: 0x24A74, size: 0x8, addend: 0x0, symName: __ZNSt8__detail30__integer_to_chars_is_unsignedIyEE, symObjAddr: 0x1C93, symBinAddr: 0x1000066F3, symSize: 0x0 }
  - { offsetInCU: 0x24B9F, offset: 0x24B9F, size: 0x8, addend: 0x0, symName: __ZNSt8__detail30__integer_to_chars_is_unsignedIoEE, symObjAddr: 0x1C94, symBinAddr: 0x1000066F4, symSize: 0x0 }
  - { offsetInCU: 0x24BFA, offset: 0x24BFA, size: 0x8, addend: 0x0, symName: __GLOBAL__sub_I_C_OTS.cpp, symObjAddr: 0x1C7C, symBinAddr: 0x100005FF8, symSize: 0x14 }
  - { offsetInCU: 0x24C02, offset: 0x24C02, size: 0x8, addend: 0x0, symName: __ZSt19piecewise_construct, symObjAddr: 0x1C90, symBinAddr: 0x1000066F0, symSize: 0x0 }
  - { offsetInCU: 0x24C25, offset: 0x24C25, size: 0x8, addend: 0x0, symName: __Z41__static_initialization_and_destruction_0v, symObjAddr: 0x1C40, symBinAddr: 0x100005FBC, symSize: 0x3C }
  - { offsetInCU: 0x24C2D, offset: 0x24C2D, size: 0x8, addend: 0x0, symName: __GLOBAL__sub_I_C_OTS.cpp, symObjAddr: 0x1C7C, symBinAddr: 0x100005FF8, symSize: 0x14 }
  - { offsetInCU: 0x24C17, offset: 0x24C17, size: 0x8, addend: 0x0, symName: __ZNSt10_Head_baseILm0ERKcLb0EE7_M_headERS2_, symObjAddr: 0x1C28, symBinAddr: 0x100005FA4, symSize: 0x18 }
  - { offsetInCU: 0x24C1F, offset: 0x24C1F, size: 0x8, addend: 0x0, symName: __Z41__static_initialization_and_destruction_0v, symObjAddr: 0x1C40, symBinAddr: 0x100005FBC, symSize: 0x3C }
  - { offsetInCU: 0x24C48, offset: 0x24C48, size: 0x8, addend: 0x0, symName: __ZNSt11_Tuple_implILm0EJRKcEE7_M_headERS2_, symObjAddr: 0x1C0C, symBinAddr: 0x100005F88, symSize: 0x1C }
  - { offsetInCU: 0x24C50, offset: 0x24C50, size: 0x8, addend: 0x0, symName: __ZNSt10_Head_baseILm0ERKcLb0EE7_M_headERS2_, symObjAddr: 0x1C28, symBinAddr: 0x100005FA4, symSize: 0x18 }
  - { offsetInCU: 0x24CF8, offset: 0x24CF8, size: 0x8, addend: 0x0, symName: __ZSt12__get_helperILm0ERKcJEERT0_RSt11_Tuple_implIXT_EJS2_DpT1_EE, symObjAddr: 0x1BF0, symBinAddr: 0x100005F6C, symSize: 0x1C }
  - { offsetInCU: 0x24D00, offset: 0x24D00, size: 0x8, addend: 0x0, symName: __ZNSt11_Tuple_implILm0EJRKcEE7_M_headERS2_, symObjAddr: 0x1C0C, symBinAddr: 0x100005F88, symSize: 0x1C }
  - { offsetInCU: 0x24CF7, offset: 0x24CF7, size: 0x8, addend: 0x0, symName: __ZNK9__gnu_cxx16__aligned_bufferISt4pairIKcxEE7_M_addrEv, symObjAddr: 0x1BDC, symBinAddr: 0x100005F58, symSize: 0x14 }
  - { offsetInCU: 0x24CFF, offset: 0x24CFF, size: 0x8, addend: 0x0, symName: __ZSt12__get_helperILm0ERKcJEERT0_RSt11_Tuple_implIXT_EJS2_DpT1_EE, symObjAddr: 0x1BF0, symBinAddr: 0x100005F6C, symSize: 0x1C }
  - { offsetInCU: 0x24D29, offset: 0x24D29, size: 0x8, addend: 0x0, symName: __ZNSt15__new_allocatorIPNSt8__detail15_Hash_node_baseEE8allocateEmPKv, symObjAddr: 0x1B60, symBinAddr: 0x100005EDC, symSize: 0x7C }
  - { offsetInCU: 0x24D31, offset: 0x24D31, size: 0x8, addend: 0x0, symName: __ZNK9__gnu_cxx16__aligned_bufferISt4pairIKcxEE7_M_addrEv, symObjAddr: 0x1BDC, symBinAddr: 0x100005F58, symSize: 0x14 }
  - { offsetInCU: 0x24E00, offset: 0x24E00, size: 0x8, addend: 0x0, symName: __ZSt7forwardIRKcEOT_RNSt16remove_referenceIS2_E4typeE, symObjAddr: 0x1B4C, symBinAddr: 0x100005EC8, symSize: 0x14 }
  - { offsetInCU: 0x24E08, offset: 0x24E08, size: 0x8, addend: 0x0, symName: __ZNSt15__new_allocatorIPNSt8__detail15_Hash_node_baseEE8allocateEmPKv, symObjAddr: 0x1B60, symBinAddr: 0x100005EDC, symSize: 0x7C }
  - { offsetInCU: 0x24E68, offset: 0x24E68, size: 0x8, addend: 0x0, symName: __ZSt3getILm0EJRKcEERNSt13tuple_elementIXT_ESt5tupleIJDpT0_EEE4typeERS6_, symObjAddr: 0x1B30, symBinAddr: 0x100005EAC, symSize: 0x1C }
  - { offsetInCU: 0x24E70, offset: 0x24E70, size: 0x8, addend: 0x0, symName: __ZSt7forwardIRKcEOT_RNSt16remove_referenceIS2_E4typeE, symObjAddr: 0x1B4C, symBinAddr: 0x100005EC8, symSize: 0x14 }
  - { offsetInCU: 0x24E62, offset: 0x24E62, size: 0x8, addend: 0x0, symName: __ZNK9__gnu_cxx16__aligned_bufferISt4pairIKcxEE6_M_ptrEv, symObjAddr: 0x1B14, symBinAddr: 0x100005E90, symSize: 0x1C }
  - { offsetInCU: 0x24E6A, offset: 0x24E6A, size: 0x8, addend: 0x0, symName: __ZSt3getILm0EJRKcEERNSt13tuple_elementIXT_ESt5tupleIJDpT0_EEE4typeERS6_, symObjAddr: 0x1B30, symBinAddr: 0x100005EAC, symSize: 0x1C }
  - { offsetInCU: 0x24EFD, offset: 0x24EFD, size: 0x8, addend: 0x0, symName: __ZSt12__to_addressIPNSt8__detail15_Hash_node_baseEEPT_S4_, symObjAddr: 0x1B00, symBinAddr: 0x100005E7C, symSize: 0x14 }
  - { offsetInCU: 0x24F05, offset: 0x24F05, size: 0x8, addend: 0x0, symName: __ZNK9__gnu_cxx16__aligned_bufferISt4pairIKcxEE6_M_ptrEv, symObjAddr: 0x1B14, symBinAddr: 0x100005E90, symSize: 0x1C }
  - { offsetInCU: 0x24FF5, offset: 0x24FF5, size: 0x8, addend: 0x0, symName: __ZNSt4pairIKcxEC1IJRS0_EJLm0EEJEJEEERSt5tupleIJDpT_EERS4_IJDpT1_EESt12_Index_tupleIJXspT0_EEESD_IJXspT2_EEE, symObjAddr: 0x1AB8, symBinAddr: 0x100005E34, symSize: 0x48 }
  - { offsetInCU: 0x24FFD, offset: 0x24FFD, size: 0x8, addend: 0x0, symName: __ZSt12__to_addressIPNSt8__detail15_Hash_node_baseEEPT_S4_, symObjAddr: 0x1B00, symBinAddr: 0x100005E7C, symSize: 0x14 }
  - { offsetInCU: 0x25096, offset: 0x25096, size: 0x8, addend: 0x0, symName: __ZSt7forwardIRKSt4pairIKcxEEOT_RNSt16remove_referenceIS5_E4typeE, symObjAddr: 0x1AA4, symBinAddr: 0x100005E20, symSize: 0x14 }
  - { offsetInCU: 0x2509E, offset: 0x2509E, size: 0x8, addend: 0x0, symName: __ZNSt4pairIKcxEC1IJRS0_EJLm0EEJEJEEERSt5tupleIJDpT_EERS4_IJDpT1_EESt12_Index_tupleIJXspT0_EEESD_IJXspT2_EEE, symObjAddr: 0x1AB8, symBinAddr: 0x100005E34, symSize: 0x48 }
  - { offsetInCU: 0x25071, offset: 0x25071, size: 0x8, addend: 0x0, symName: __ZNKSt8__detail21_Hash_node_value_baseISt4pairIKcxEE9_M_valptrEv, symObjAddr: 0x1A88, symBinAddr: 0x100005E04, symSize: 0x1C }
  - { offsetInCU: 0x25079, offset: 0x25079, size: 0x8, addend: 0x0, symName: __ZSt7forwardIRKSt4pairIKcxEEOT_RNSt16remove_referenceIS5_E4typeE, symObjAddr: 0x1AA4, symBinAddr: 0x100005E20, symSize: 0x14 }
  - { offsetInCU: 0x250A0, offset: 0x250A0, size: 0x8, addend: 0x0, symName: __ZNKSt8__detail21_Hashtable_ebo_helperILi0ESt8equal_toIcELb1EE7_M_cgetEv, symObjAddr: 0x1A74, symBinAddr: 0x100005DF0, symSize: 0x14 }
  - { offsetInCU: 0x250A8, offset: 0x250A8, size: 0x8, addend: 0x0, symName: __ZNKSt8__detail21_Hash_node_value_baseISt4pairIKcxEE9_M_valptrEv, symObjAddr: 0x1A88, symBinAddr: 0x100005E04, symSize: 0x1C }
  - { offsetInCU: 0x2516E, offset: 0x2516E, size: 0x8, addend: 0x0, symName: __ZSt11__addressofINSt8__detail10_Hash_nodeISt4pairIKcxELb0EEEEPT_RS6_, symObjAddr: 0x1A60, symBinAddr: 0x100005DDC, symSize: 0x14 }
  - { offsetInCU: 0x25176, offset: 0x25176, size: 0x8, addend: 0x0, symName: __ZNKSt8__detail21_Hashtable_ebo_helperILi0ESt8equal_toIcELb1EE7_M_cgetEv, symObjAddr: 0x1A74, symBinAddr: 0x100005DF0, symSize: 0x14 }
  - { offsetInCU: 0x2511A, offset: 0x2511A, size: 0x8, addend: 0x0, symName: __ZNSt8__detail16_Hashtable_allocISaINS_10_Hash_nodeISt4pairIKcxELb0EEEEE19_M_allocate_bucketsEm, symObjAddr: 0x19A8, symBinAddr: 0x100005D24, symSize: 0xB8 }
  - { offsetInCU: 0x25122, offset: 0x25122, size: 0x8, addend: 0x0, symName: __ZSt11__addressofINSt8__detail10_Hash_nodeISt4pairIKcxELb0EEEEPT_RS6_, symObjAddr: 0x1A60, symBinAddr: 0x100005DDC, symSize: 0x14 }
  - { offsetInCU: 0x2531E, offset: 0x2531E, size: 0x8, addend: 0x0, symName: __ZNSt4pairIKcxEC1IJRS0_EJEEESt21piecewise_construct_tSt5tupleIJDpT_EES5_IJDpT0_EE, symObjAddr: 0x196C, symBinAddr: 0x100005CE8, symSize: 0x3C }
  - { offsetInCU: 0x25326, offset: 0x25326, size: 0x8, addend: 0x0, symName: __ZNSt8__detail16_Hashtable_allocISaINS_10_Hash_nodeISt4pairIKcxELb0EEEEE19_M_allocate_bucketsEm, symObjAddr: 0x19A8, symBinAddr: 0x100005D24, symSize: 0xB8 }
  - { offsetInCU: 0x25388, offset: 0x25388, size: 0x8, addend: 0x0, symName: __ZNSt11_Tuple_implILm0EJRKcEEC2EOS2_, symObjAddr: 0x1944, symBinAddr: 0x100005CC0, symSize: 0x28 }
  - { offsetInCU: 0x25390, offset: 0x25390, size: 0x8, addend: 0x0, symName: __ZNSt4pairIKcxEC1IJRS0_EJEEESt21piecewise_construct_tSt5tupleIJDpT_EES5_IJDpT0_EE, symObjAddr: 0x196C, symBinAddr: 0x100005CE8, symSize: 0x3C }
  - { offsetInCU: 0x253B9, offset: 0x253B9, size: 0x8, addend: 0x0, symName: __ZNKSt8equal_toIcEclERKcS2_, symObjAddr: 0x1910, symBinAddr: 0x100005C8C, symSize: 0x34 }
  - { offsetInCU: 0x253C1, offset: 0x253C1, size: 0x8, addend: 0x0, symName: __ZNSt11_Tuple_implILm0EJRKcEEC2EOS2_, symObjAddr: 0x1944, symBinAddr: 0x100005CC0, symSize: 0x28 }
  - { offsetInCU: 0x25423, offset: 0x25423, size: 0x8, addend: 0x0, symName: __ZNKSt8__detail10_Select1stclIRKSt4pairIKcxEEEONS0_10__1st_typeIT_E4typeEOS8_, symObjAddr: 0x18F0, symBinAddr: 0x100005C6C, symSize: 0x20 }
  - { offsetInCU: 0x2542B, offset: 0x2542B, size: 0x8, addend: 0x0, symName: __ZNKSt8equal_toIcEclERKcS2_, symObjAddr: 0x1910, symBinAddr: 0x100005C8C, symSize: 0x34 }
  - { offsetInCU: 0x25472, offset: 0x25472, size: 0x8, addend: 0x0, symName: __ZNKSt8__detail21_Hash_node_value_baseISt4pairIKcxEE4_M_vEv, symObjAddr: 0x18D4, symBinAddr: 0x100005C50, symSize: 0x1C }
  - { offsetInCU: 0x2547A, offset: 0x2547A, size: 0x8, addend: 0x0, symName: __ZNKSt8__detail10_Select1stclIRKSt4pairIKcxEEEONS0_10__1st_typeIT_E4typeEOS8_, symObjAddr: 0x18F0, symBinAddr: 0x100005C6C, symSize: 0x20 }
  - { offsetInCU: 0x254A1, offset: 0x254A1, size: 0x8, addend: 0x0, symName: __ZNKSt8__detail15_Hashtable_baseIcSt4pairIKcxENS_10_Select1stESt8equal_toIcESt4hashIcENS_18_Mod_range_hashingENS_20_Default_ranged_hashENS_17_Hashtable_traitsILb0ELb0ELb1EEEE5_M_eqEv, symObjAddr: 0x18B8, symBinAddr: 0x100005C34, symSize: 0x1C }
  - { offsetInCU: 0x254A9, offset: 0x254A9, size: 0x8, addend: 0x0, symName: __ZNKSt8__detail21_Hash_node_value_baseISt4pairIKcxEE4_M_vEv, symObjAddr: 0x18D4, symBinAddr: 0x100005C50, symSize: 0x1C }
  - { offsetInCU: 0x2553B, offset: 0x2553B, size: 0x8, addend: 0x0, symName: __ZSt11__addressofIPNSt8__detail15_Hash_node_baseEEPT_RS3_, symObjAddr: 0x18A4, symBinAddr: 0x100005C20, symSize: 0x14 }
  - { offsetInCU: 0x25543, offset: 0x25543, size: 0x8, addend: 0x0, symName: __ZNKSt8__detail15_Hashtable_baseIcSt4pairIKcxENS_10_Select1stESt8equal_toIcESt4hashIcENS_18_Mod_range_hashingENS_20_Default_ranged_hashENS_17_Hashtable_traitsILb0ELb0ELb1EEEE5_M_eqEv, symObjAddr: 0x18B8, symBinAddr: 0x100005C34, symSize: 0x1C }
  - { offsetInCU: 0x255B5, offset: 0x255B5, size: 0x8, addend: 0x0, symName: __ZSt9addressofINSt8__detail10_Hash_nodeISt4pairIKcxELb0EEEEPT_RS6_, symObjAddr: 0x1888, symBinAddr: 0x100005C04, symSize: 0x1C }
  - { offsetInCU: 0x255BD, offset: 0x255BD, size: 0x8, addend: 0x0, symName: __ZSt11__addressofIPNSt8__detail15_Hash_node_baseEEPT_RS3_, symObjAddr: 0x18A4, symBinAddr: 0x100005C20, symSize: 0x14 }
  - { offsetInCU: 0x25566, offset: 0x25566, size: 0x8, addend: 0x0, symName: __ZNSt10_HashtableIcSt4pairIKcxESaIS2_ENSt8__detail10_Select1stESt8equal_toIcESt4hashIcENS4_18_Mod_range_hashingENS4_20_Default_ranged_hashENS4_20_Prime_rehash_policyENS4_17_Hashtable_traitsILb0ELb0ELb1EEEE19_M_allocate_bucketsEm, symObjAddr: 0x1830, symBinAddr: 0x100005BAC, symSize: 0x58 }
  - { offsetInCU: 0x2556E, offset: 0x2556E, size: 0x8, addend: 0x0, symName: __ZSt9addressofINSt8__detail10_Hash_nodeISt4pairIKcxELb0EEEEPT_RS6_, symObjAddr: 0x1888, symBinAddr: 0x100005C04, symSize: 0x1C }
  - { offsetInCU: 0x255A9, offset: 0x255A9, size: 0x8, addend: 0x0, symName: __ZNSt15__new_allocatorINSt8__detail10_Hash_nodeISt4pairIKcxELb0EEEE10deallocateEPS5_m, symObjAddr: 0x17F4, symBinAddr: 0x100005B70, symSize: 0x3C }
  - { offsetInCU: 0x255B1, offset: 0x255B1, size: 0x8, addend: 0x0, symName: __ZNSt10_HashtableIcSt4pairIKcxESaIS2_ENSt8__detail10_Select1stESt8equal_toIcESt4hashIcENS4_18_Mod_range_hashingENS4_20_Default_ranged_hashENS4_20_Prime_rehash_policyENS4_17_Hashtable_traitsILb0ELb0ELb1EEEE19_M_allocate_bucketsEm, symObjAddr: 0x1830, symBinAddr: 0x100005BAC, symSize: 0x58 }
  - { offsetInCU: 0x256C7, offset: 0x256C7, size: 0x8, addend: 0x0, symName: __ZNSt5tupleIJRKcEEC1EOS2_, symObjAddr: 0x17CC, symBinAddr: 0x100005B48, symSize: 0x28 }
  - { offsetInCU: 0x256CF, offset: 0x256CF, size: 0x8, addend: 0x0, symName: __ZNSt15__new_allocatorINSt8__detail10_Hash_nodeISt4pairIKcxELb0EEEE10deallocateEPS5_m, symObjAddr: 0x17F4, symBinAddr: 0x100005B70, symSize: 0x3C }
  - { offsetInCU: 0x256EA, offset: 0x256EA, size: 0x8, addend: 0x0, symName: __ZNSt15__new_allocatorINSt8__detail10_Hash_nodeISt4pairIKcxELb0EEEE8allocateEmPKv, symObjAddr: 0x173C, symBinAddr: 0x100005AB8, symSize: 0x90 }
  - { offsetInCU: 0x256F2, offset: 0x256F2, size: 0x8, addend: 0x0, symName: __ZNSt5tupleIJRKcEEC1EOS2_, symObjAddr: 0x17CC, symBinAddr: 0x100005B48, symSize: 0x28 }
  - { offsetInCU: 0x25772, offset: 0x25772, size: 0x8, addend: 0x0, symName: __ZNKSt8__detail15_Hash_code_baseIcSt4pairIKcxENS_10_Select1stESt4hashIcENS_18_Mod_range_hashingENS_20_Default_ranged_hashELb0EE15_M_bucket_indexERKNS_16_Hash_node_valueIS3_Lb0EEEm, symObjAddr: 0x16F0, symBinAddr: 0x100005A6C, symSize: 0x4C }
  - { offsetInCU: 0x2577A, offset: 0x2577A, size: 0x8, addend: 0x0, symName: __ZNSt15__new_allocatorINSt8__detail10_Hash_nodeISt4pairIKcxELb0EEEE8allocateEmPKv, symObjAddr: 0x173C, symBinAddr: 0x100005AB8, symSize: 0x90 }
  - { offsetInCU: 0x257C9, offset: 0x257C9, size: 0x8, addend: 0x0, symName: __ZNKSt8__detail15_Hashtable_baseIcSt4pairIKcxENS_10_Select1stESt8equal_toIcESt4hashIcENS_18_Mod_range_hashingENS_20_Default_ranged_hashENS_17_Hashtable_traitsILb0ELb0ELb1EEEE13_M_key_equalsERS2_RKNS_16_Hash_node_valueIS3_Lb0EEE, symObjAddr: 0x1698, symBinAddr: 0x100005A14, symSize: 0x58 }
  - { offsetInCU: 0x257D1, offset: 0x257D1, size: 0x8, addend: 0x0, symName: __ZNKSt8__detail15_Hash_code_baseIcSt4pairIKcxENS_10_Select1stESt4hashIcENS_18_Mod_range_hashingENS_20_Default_ranged_hashELb0EE15_M_bucket_indexERKNS_16_Hash_node_valueIS3_Lb0EEEm, symObjAddr: 0x16F0, symBinAddr: 0x100005A6C, symSize: 0x4C }
  - { offsetInCU: 0x25820, offset: 0x25820, size: 0x8, addend: 0x0, symName: __ZNSt8__detail15_Hashtable_baseIcSt4pairIKcxENS_10_Select1stESt8equal_toIcESt4hashIcENS_18_Mod_range_hashingENS_20_Default_ranged_hashENS_17_Hashtable_traitsILb0ELb0ELb1EEEE9_S_equalsEmRKNS_21_Hash_node_code_cacheILb0EEE, symObjAddr: 0x1680, symBinAddr: 0x1000059FC, symSize: 0x18 }
  - { offsetInCU: 0x25828, offset: 0x25828, size: 0x8, addend: 0x0, symName: __ZNKSt8__detail15_Hashtable_baseIcSt4pairIKcxENS_10_Select1stESt8equal_toIcESt4hashIcENS_18_Mod_range_hashingENS_20_Default_ranged_hashENS_17_Hashtable_traitsILb0ELb0ELb1EEEE13_M_key_equalsERS2_RKNS_16_Hash_node_valueIS3_Lb0EEE, symObjAddr: 0x1698, symBinAddr: 0x100005A14, symSize: 0x58 }
  - { offsetInCU: 0x25856, offset: 0x25856, size: 0x8, addend: 0x0, symName: __ZNSt15__new_allocatorIPNSt8__detail15_Hash_node_baseEE10deallocateEPS2_m, symObjAddr: 0x1650, symBinAddr: 0x1000059CC, symSize: 0x30 }
  - { offsetInCU: 0x2585E, offset: 0x2585E, size: 0x8, addend: 0x0, symName: __ZNSt8__detail15_Hashtable_baseIcSt4pairIKcxENS_10_Select1stESt8equal_toIcESt4hashIcENS_18_Mod_range_hashingENS_20_Default_ranged_hashENS_17_Hashtable_traitsILb0ELb0ELb1EEEE9_S_equalsEmRKNS_21_Hash_node_code_cacheILb0EEE, symObjAddr: 0x1680, symBinAddr: 0x1000059FC, symSize: 0x18 }
  - { offsetInCU: 0x2590E, offset: 0x2590E, size: 0x8, addend: 0x0, symName: __ZNSt15__new_allocatorIPNSt8__detail15_Hash_node_baseEED2Ev, symObjAddr: 0x163C, symBinAddr: 0x1000059B8, symSize: 0x14 }
  - { offsetInCU: 0x25916, offset: 0x25916, size: 0x8, addend: 0x0, symName: __ZNSt15__new_allocatorIPNSt8__detail15_Hash_node_baseEE10deallocateEPS2_m, symObjAddr: 0x1650, symBinAddr: 0x1000059CC, symSize: 0x30 }
  - { offsetInCU: 0x25981, offset: 0x25981, size: 0x8, addend: 0x0, symName: __ZSt9addressofIPNSt8__detail15_Hash_node_baseEEPT_RS3_, symObjAddr: 0x1620, symBinAddr: 0x10000599C, symSize: 0x1C }
  - { offsetInCU: 0x25989, offset: 0x25989, size: 0x8, addend: 0x0, symName: __ZNSt15__new_allocatorIPNSt8__detail15_Hash_node_baseEED2Ev, symObjAddr: 0x163C, symBinAddr: 0x1000059B8, symSize: 0x14 }
  - { offsetInCU: 0x25966, offset: 0x25966, size: 0x8, addend: 0x0, symName: __ZNSt19__ptr_traits_ptr_toIPNSt8__detail10_Hash_nodeISt4pairIKcxELb0EEES5_Lb0EE10pointer_toERS5_, symObjAddr: 0x1604, symBinAddr: 0x100005980, symSize: 0x1C }
  - { offsetInCU: 0x2596E, offset: 0x2596E, size: 0x8, addend: 0x0, symName: __ZSt9addressofIPNSt8__detail15_Hash_node_baseEEPT_RS3_, symObjAddr: 0x1620, symBinAddr: 0x10000599C, symSize: 0x1C }
  - { offsetInCU: 0x259CE, offset: 0x259CE, size: 0x8, addend: 0x0, symName: __ZNSt8__detail21_Hashtable_ebo_helperILi0ESaINS_10_Hash_nodeISt4pairIKcxELb0EEEELb1EE6_M_getEv, symObjAddr: 0x15F0, symBinAddr: 0x10000596C, symSize: 0x14 }
  - { offsetInCU: 0x259D6, offset: 0x259D6, size: 0x8, addend: 0x0, symName: __ZNSt19__ptr_traits_ptr_toIPNSt8__detail10_Hash_nodeISt4pairIKcxELb0EEES5_Lb0EE10pointer_toERS5_, symObjAddr: 0x1604, symBinAddr: 0x100005980, symSize: 0x1C }
  - { offsetInCU: 0x25A02, offset: 0x25A02, size: 0x8, addend: 0x0, symName: __ZN9__gnu_cxx16__aligned_bufferISt4pairIKcxEE7_M_addrEv, symObjAddr: 0x15DC, symBinAddr: 0x100005958, symSize: 0x14 }
  - { offsetInCU: 0x25A0A, offset: 0x25A0A, size: 0x8, addend: 0x0, symName: __ZNSt8__detail21_Hashtable_ebo_helperILi0ESaINS_10_Hash_nodeISt4pairIKcxELb0EEEELb1EE6_M_getEv, symObjAddr: 0x15F0, symBinAddr: 0x10000596C, symSize: 0x14 }
  - { offsetInCU: 0x25A34, offset: 0x25A34, size: 0x8, addend: 0x0, symName: __ZNSt10_HashtableIcSt4pairIKcxESaIS2_ENSt8__detail10_Select1stESt8equal_toIcESt4hashIcENS4_18_Mod_range_hashingENS4_20_Default_ranged_hashENS4_20_Prime_rehash_policyENS4_17_Hashtable_traitsILb0ELb0ELb1EEEE13_M_rehash_auxEmSt17integral_constantIbLb1EE, symObjAddr: 0x1470, symBinAddr: 0x1000057EC, symSize: 0x16C }
  - { offsetInCU: 0x25A3C, offset: 0x25A3C, size: 0x8, addend: 0x0, symName: __ZN9__gnu_cxx16__aligned_bufferISt4pairIKcxEE7_M_addrEv, symObjAddr: 0x15DC, symBinAddr: 0x100005958, symSize: 0x14 }
  - { offsetInCU: 0x25C60, offset: 0x25C60, size: 0x8, addend: 0x0, symName: __ZSt12__to_addressINSt8__detail10_Hash_nodeISt4pairIKcxELb0EEEEPT_S7_, symObjAddr: 0x145C, symBinAddr: 0x1000057D8, symSize: 0x14 }
  - { offsetInCU: 0x25C68, offset: 0x25C68, size: 0x8, addend: 0x0, symName: __ZNSt10_HashtableIcSt4pairIKcxESaIS2_ENSt8__detail10_Select1stESt8equal_toIcESt4hashIcENS4_18_Mod_range_hashingENS4_20_Default_ranged_hashENS4_20_Prime_rehash_policyENS4_17_Hashtable_traitsILb0ELb0ELb1EEEE13_M_rehash_auxEmSt17integral_constantIbLb1EE, symObjAddr: 0x1470, symBinAddr: 0x1000057EC, symSize: 0x16C }
  - { offsetInCU: 0x25C89, offset: 0x25C89, size: 0x8, addend: 0x0, symName: __ZNSt10_Head_baseILm0ERKcLb0EEC2ES1_, symObjAddr: 0x1438, symBinAddr: 0x1000057B4, symSize: 0x24 }
  - { offsetInCU: 0x25C91, offset: 0x25C91, size: 0x8, addend: 0x0, symName: __ZSt12__to_addressINSt8__detail10_Hash_nodeISt4pairIKcxELb0EEEEPT_S7_, symObjAddr: 0x145C, symBinAddr: 0x1000057D8, symSize: 0x14 }
  - { offsetInCU: 0x25CA1, offset: 0x25CA1, size: 0x8, addend: 0x0, symName: __ZNKSt10_HashtableIcSt4pairIKcxESaIS2_ENSt8__detail10_Select1stESt8equal_toIcESt4hashIcENS4_18_Mod_range_hashingENS4_20_Default_ranged_hashENS4_20_Prime_rehash_policyENS4_17_Hashtable_traitsILb0ELb0ELb1EEEE15_M_bucket_indexERKNS4_16_Hash_node_valueIS2_Lb0EEE, symObjAddr: 0x1408, symBinAddr: 0x100005784, symSize: 0x30 }
  - { offsetInCU: 0x25CA9, offset: 0x25CA9, size: 0x8, addend: 0x0, symName: __ZNSt10_Head_baseILm0ERKcLb0EEC2ES1_, symObjAddr: 0x1438, symBinAddr: 0x1000057B4, symSize: 0x24 }
  - { offsetInCU: 0x25CE4, offset: 0x25CE4, size: 0x8, addend: 0x0, symName: __ZNKSt8__detail15_Hashtable_baseIcSt4pairIKcxENS_10_Select1stESt8equal_toIcESt4hashIcENS_18_Mod_range_hashingENS_20_Default_ranged_hashENS_17_Hashtable_traitsILb0ELb0ELb1EEEE9_M_equalsERS2_mRKNS_16_Hash_node_valueIS3_Lb0EEE, symObjAddr: 0x13A0, symBinAddr: 0x10000571C, symSize: 0x68 }
  - { offsetInCU: 0x25CEC, offset: 0x25CEC, size: 0x8, addend: 0x0, symName: __ZNKSt10_HashtableIcSt4pairIKcxESaIS2_ENSt8__detail10_Select1stESt8equal_toIcESt4hashIcENS4_18_Mod_range_hashingENS4_20_Default_ranged_hashENS4_20_Prime_rehash_policyENS4_17_Hashtable_traitsILb0ELb0ELb1EEEE15_M_bucket_indexERKNS4_16_Hash_node_valueIS2_Lb0EEE, symObjAddr: 0x1408, symBinAddr: 0x100005784, symSize: 0x30 }
  - { offsetInCU: 0x25D4F, offset: 0x25D4F, size: 0x8, addend: 0x0, symName: __ZNKSt8__detail21_Hashtable_ebo_helperILi1ESt4hashIcELb1EE7_M_cgetEv, symObjAddr: 0x138C, symBinAddr: 0x100005708, symSize: 0x14 }
  - { offsetInCU: 0x25D57, offset: 0x25D57, size: 0x8, addend: 0x0, symName: __ZNKSt8__detail15_Hashtable_baseIcSt4pairIKcxENS_10_Select1stESt8equal_toIcESt4hashIcENS_18_Mod_range_hashingENS_20_Default_ranged_hashENS_17_Hashtable_traitsILb0ELb0ELb1EEEE9_M_equalsERS2_mRKNS_16_Hash_node_valueIS3_Lb0EEE, symObjAddr: 0x13A0, symBinAddr: 0x10000571C, symSize: 0x68 }
  - { offsetInCU: 0x25E15, offset: 0x25E15, size: 0x8, addend: 0x0, symName: __ZNSt19__ptr_traits_ptr_toIPPNSt8__detail15_Hash_node_baseES2_Lb0EE10pointer_toERS2_, symObjAddr: 0x1370, symBinAddr: 0x1000056EC, symSize: 0x1C }
  - { offsetInCU: 0x25E1D, offset: 0x25E1D, size: 0x8, addend: 0x0, symName: __ZNKSt8__detail21_Hashtable_ebo_helperILi1ESt4hashIcELb1EE7_M_cgetEv, symObjAddr: 0x138C, symBinAddr: 0x100005708, symSize: 0x14 }
  - { offsetInCU: 0x25E46, offset: 0x25E46, size: 0x8, addend: 0x0, symName: __ZNSt8__detail16_Hashtable_allocISaINS_10_Hash_nodeISt4pairIKcxELb0EEEEE22_M_deallocate_node_ptrEPS5_, symObjAddr: 0x1318, symBinAddr: 0x100005694, symSize: 0x58 }
  - { offsetInCU: 0x25E4E, offset: 0x25E4E, size: 0x8, addend: 0x0, symName: __ZNSt19__ptr_traits_ptr_toIPPNSt8__detail15_Hash_node_baseES2_Lb0EE10pointer_toERS2_, symObjAddr: 0x1370, symBinAddr: 0x1000056EC, symSize: 0x1C }
  - { offsetInCU: 0x25F1C, offset: 0x25F1C, size: 0x8, addend: 0x0, symName: __ZNSt8__detail16_Hashtable_allocISaINS_10_Hash_nodeISt4pairIKcxELb0EEEEE17_M_node_allocatorEv, symObjAddr: 0x12FC, symBinAddr: 0x100005678, symSize: 0x1C }
  - { offsetInCU: 0x25F24, offset: 0x25F24, size: 0x8, addend: 0x0, symName: __ZNSt8__detail16_Hashtable_allocISaINS_10_Hash_nodeISt4pairIKcxELb0EEEEE22_M_deallocate_node_ptrEPS5_, symObjAddr: 0x1318, symBinAddr: 0x100005694, symSize: 0x58 }
  - { offsetInCU: 0x25F4B, offset: 0x25F4B, size: 0x8, addend: 0x0, symName: __ZN9__gnu_cxx16__aligned_bufferISt4pairIKcxEE6_M_ptrEv, symObjAddr: 0x12E0, symBinAddr: 0x10000565C, symSize: 0x1C }
  - { offsetInCU: 0x25F53, offset: 0x25F53, size: 0x8, addend: 0x0, symName: __ZNSt8__detail16_Hashtable_allocISaINS_10_Hash_nodeISt4pairIKcxELb0EEEEE17_M_node_allocatorEv, symObjAddr: 0x12FC, symBinAddr: 0x100005678, symSize: 0x1C }
  - { offsetInCU: 0x25FF8, offset: 0x25FF8, size: 0x8, addend: 0x0, symName: __ZNSt8__detail19_Node_iterator_baseISt4pairIKcxELb0EEC2EPNS_10_Hash_nodeIS3_Lb0EEE, symObjAddr: 0x12BC, symBinAddr: 0x100005638, symSize: 0x24 }
  - { offsetInCU: 0x26000, offset: 0x26000, size: 0x8, addend: 0x0, symName: __ZN9__gnu_cxx16__aligned_bufferISt4pairIKcxEE6_M_ptrEv, symObjAddr: 0x12E0, symBinAddr: 0x10000565C, symSize: 0x1C }
  - { offsetInCU: 0x25FE2, offset: 0x25FE2, size: 0x8, addend: 0x0, symName: __ZNSt10_HashtableIcSt4pairIKcxESaIS2_ENSt8__detail10_Select1stESt8equal_toIcESt4hashIcENS4_18_Mod_range_hashingENS4_20_Default_ranged_hashENS4_20_Prime_rehash_policyENS4_17_Hashtable_traitsILb0ELb0ELb1EEEE22_M_insert_bucket_beginEmPNS4_10_Hash_nodeIS2_Lb0EEE, symObjAddr: 0x11B0, symBinAddr: 0x10000552C, symSize: 0x10C }
  - { offsetInCU: 0x25FEA, offset: 0x25FEA, size: 0x8, addend: 0x0, symName: __ZNSt8__detail19_Node_iterator_baseISt4pairIKcxELb0EEC2EPNS_10_Hash_nodeIS3_Lb0EEE, symObjAddr: 0x12BC, symBinAddr: 0x100005638, symSize: 0x24 }
  - { offsetInCU: 0x26039, offset: 0x26039, size: 0x8, addend: 0x0, symName: __ZNKSt8__detail15_Hash_code_baseIcSt4pairIKcxENS_10_Select1stESt4hashIcENS_18_Mod_range_hashingENS_20_Default_ranged_hashELb0EE13_M_store_codeERNS_21_Hash_node_code_cacheILb0EEEm, symObjAddr: 0x1194, symBinAddr: 0x100005510, symSize: 0x1C }
  - { offsetInCU: 0x26041, offset: 0x26041, size: 0x8, addend: 0x0, symName: __ZNSt10_HashtableIcSt4pairIKcxESaIS2_ENSt8__detail10_Select1stESt8equal_toIcESt4hashIcENS4_18_Mod_range_hashingENS4_20_Default_ranged_hashENS4_20_Prime_rehash_policyENS4_17_Hashtable_traitsILb0ELb0ELb1EEEE22_M_insert_bucket_beginEmPNS4_10_Hash_nodeIS2_Lb0EEE, symObjAddr: 0x11B0, symBinAddr: 0x10000552C, symSize: 0x10C }
  - { offsetInCU: 0x26080, offset: 0x26080, size: 0x8, addend: 0x0, symName: __ZNSt10_HashtableIcSt4pairIKcxESaIS2_ENSt8__detail10_Select1stESt8equal_toIcESt4hashIcENS4_18_Mod_range_hashingENS4_20_Default_ranged_hashENS4_20_Prime_rehash_policyENS4_17_Hashtable_traitsILb0ELb0ELb1EEEE9_M_rehashEmRKm, symObjAddr: 0x1128, symBinAddr: 0x1000054A4, symSize: 0x6C }
  - { offsetInCU: 0x26088, offset: 0x26088, size: 0x8, addend: 0x0, symName: __ZNKSt8__detail15_Hash_code_baseIcSt4pairIKcxENS_10_Select1stESt4hashIcENS_18_Mod_range_hashingENS_20_Default_ranged_hashELb0EE13_M_store_codeERNS_21_Hash_node_code_cacheILb0EEEm, symObjAddr: 0x1194, symBinAddr: 0x100005510, symSize: 0x1C }
  - { offsetInCU: 0x260D7, offset: 0x260D7, size: 0x8, addend: 0x0, symName: __ZNSt8__detail16_Hashtable_allocISaINS_10_Hash_nodeISt4pairIKcxELb0EEEEE16_M_allocate_nodeIJRKSt21piecewise_construct_tSt5tupleIJRS3_EESC_IJEEEEEPS5_DpOT_, symObjAddr: 0xF44, symBinAddr: 0x1000052C0, symSize: 0x1E4 }
  - { offsetInCU: 0x260DF, offset: 0x260DF, size: 0x8, addend: 0x0, symName: __ZNSt10_HashtableIcSt4pairIKcxESaIS2_ENSt8__detail10_Select1stESt8equal_toIcESt4hashIcENS4_18_Mod_range_hashingENS4_20_Default_ranged_hashENS4_20_Prime_rehash_policyENS4_17_Hashtable_traitsILb0ELb0ELb1EEEE9_M_rehashEmRKm, symObjAddr: 0x1128, symBinAddr: 0x1000054A4, symSize: 0x6C }
  - { offsetInCU: 0x26307, offset: 0x26307, size: 0x8, addend: 0x0, symName: __ZNSt8__detail10_Hash_nodeISt4pairIKcxELb0EEC1Ev, symObjAddr: 0xF24, symBinAddr: 0x1000052A0, symSize: 0x20 }
  - { offsetInCU: 0x2630F, offset: 0x2630F, size: 0x8, addend: 0x0, symName: __ZNSt8__detail16_Hashtable_allocISaINS_10_Hash_nodeISt4pairIKcxELb0EEEEE16_M_allocate_nodeIJRKSt21piecewise_construct_tSt5tupleIJRS3_EESC_IJEEEEEPS5_DpOT_, symObjAddr: 0xF44, symBinAddr: 0x1000052C0, symSize: 0x1E4 }
  - { offsetInCU: 0x26360, offset: 0x26360, size: 0x8, addend: 0x0, symName: __ZSt7forwardISt5tupleIJEEEOT_RNSt16remove_referenceIS2_E4typeE, symObjAddr: 0xF10, symBinAddr: 0x10000528C, symSize: 0x14 }
  - { offsetInCU: 0x26368, offset: 0x26368, size: 0x8, addend: 0x0, symName: __ZNSt8__detail10_Hash_nodeISt4pairIKcxELb0EEC1Ev, symObjAddr: 0xF24, symBinAddr: 0x1000052A0, symSize: 0x20 }
  - { offsetInCU: 0x263C3, offset: 0x263C3, size: 0x8, addend: 0x0, symName: __ZSt7forwardISt5tupleIJRKcEEEOT_RNSt16remove_referenceIS4_E4typeE, symObjAddr: 0xEFC, symBinAddr: 0x100005278, symSize: 0x14 }
  - { offsetInCU: 0x263CB, offset: 0x263CB, size: 0x8, addend: 0x0, symName: __ZSt7forwardISt5tupleIJEEEOT_RNSt16remove_referenceIS2_E4typeE, symObjAddr: 0xF10, symBinAddr: 0x10000528C, symSize: 0x14 }
  - { offsetInCU: 0x2642D, offset: 0x2642D, size: 0x8, addend: 0x0, symName: __ZSt7forwardIRKSt21piecewise_construct_tEOT_RNSt16remove_referenceIS3_E4typeE, symObjAddr: 0xEE8, symBinAddr: 0x100005264, symSize: 0x14 }
  - { offsetInCU: 0x26435, offset: 0x26435, size: 0x8, addend: 0x0, symName: __ZSt7forwardISt5tupleIJRKcEEEOT_RNSt16remove_referenceIS4_E4typeE, symObjAddr: 0xEFC, symBinAddr: 0x100005278, symSize: 0x14 }
  - { offsetInCU: 0x26454, offset: 0x26454, size: 0x8, addend: 0x0, symName: __ZNSt11_Tuple_implILm0EJRKcEEC2ES1_, symObjAddr: 0xEC0, symBinAddr: 0x10000523C, symSize: 0x28 }
  - { offsetInCU: 0x2645C, offset: 0x2645C, size: 0x8, addend: 0x0, symName: __ZSt7forwardIRKSt21piecewise_construct_tEOT_RNSt16remove_referenceIS3_E4typeE, symObjAddr: 0xEE8, symBinAddr: 0x100005264, symSize: 0x14 }
  - { offsetInCU: 0x2646D, offset: 0x2646D, size: 0x8, addend: 0x0, symName: __ZNKSt10_HashtableIcSt4pairIKcxESaIS2_ENSt8__detail10_Select1stESt8equal_toIcESt4hashIcENS4_18_Mod_range_hashingENS4_20_Default_ranged_hashENS4_20_Prime_rehash_policyENS4_17_Hashtable_traitsILb0ELb0ELb1EEEE19_M_find_before_nodeEmRS1_m, symObjAddr: 0xDC0, symBinAddr: 0x10000513C, symSize: 0x100 }
  - { offsetInCU: 0x26475, offset: 0x26475, size: 0x8, addend: 0x0, symName: __ZNSt11_Tuple_implILm0EJRKcEEC2ES1_, symObjAddr: 0xEC0, symBinAddr: 0x10000523C, symSize: 0x28 }
  - { offsetInCU: 0x26515, offset: 0x26515, size: 0x8, addend: 0x0, symName: __ZNKSt8__detail15_Hash_code_baseIcSt4pairIKcxENS_10_Select1stESt4hashIcENS_18_Mod_range_hashingENS_20_Default_ranged_hashELb0EE15_M_bucket_indexEmm, symObjAddr: 0xD94, symBinAddr: 0x100005110, symSize: 0x2C }
  - { offsetInCU: 0x2651D, offset: 0x2651D, size: 0x8, addend: 0x0, symName: __ZNKSt10_HashtableIcSt4pairIKcxESaIS2_ENSt8__detail10_Select1stESt8equal_toIcESt4hashIcENS4_18_Mod_range_hashingENS4_20_Default_ranged_hashENS4_20_Prime_rehash_policyENS4_17_Hashtable_traitsILb0ELb0ELb1EEEE19_M_find_before_nodeEmRS1_m, symObjAddr: 0xDC0, symBinAddr: 0x10000513C, symSize: 0x100 }
  - { offsetInCU: 0x2656C, offset: 0x2656C, size: 0x8, addend: 0x0, symName: __ZNKSt8__detail15_Hash_code_baseIcSt4pairIKcxENS_10_Select1stESt4hashIcENS_18_Mod_range_hashingENS_20_Default_ranged_hashELb0EE7_M_hashEv, symObjAddr: 0xD78, symBinAddr: 0x1000050F4, symSize: 0x1C }
  - { offsetInCU: 0x26574, offset: 0x26574, size: 0x8, addend: 0x0, symName: __ZNKSt8__detail15_Hash_code_baseIcSt4pairIKcxENS_10_Select1stESt4hashIcENS_18_Mod_range_hashingENS_20_Default_ranged_hashELb0EE15_M_bucket_indexEmm, symObjAddr: 0xD94, symBinAddr: 0x100005110, symSize: 0x2C }
  - { offsetInCU: 0x2659B, offset: 0x2659B, size: 0x8, addend: 0x0, symName: __ZNSt8__detail16_Hashtable_allocISaINS_10_Hash_nodeISt4pairIKcxELb0EEEEE21_M_deallocate_bucketsEPPNS_15_Hash_node_baseEm, symObjAddr: 0xD00, symBinAddr: 0x10000507C, symSize: 0x78 }
  - { offsetInCU: 0x265A3, offset: 0x265A3, size: 0x8, addend: 0x0, symName: __ZNKSt8__detail15_Hash_code_baseIcSt4pairIKcxENS_10_Select1stESt4hashIcENS_18_Mod_range_hashingENS_20_Default_ranged_hashELb0EE7_M_hashEv, symObjAddr: 0xD78, symBinAddr: 0x1000050F4, symSize: 0x1C }
  - { offsetInCU: 0x266DB, offset: 0x266DB, size: 0x8, addend: 0x0, symName: __ZNKSt10_HashtableIcSt4pairIKcxESaIS2_ENSt8__detail10_Select1stESt8equal_toIcESt4hashIcENS4_18_Mod_range_hashingENS4_20_Default_ranged_hashENS4_20_Prime_rehash_policyENS4_17_Hashtable_traitsILb0ELb0ELb1EEEE21_M_uses_single_bucketEPPNS4_15_Hash_node_baseE, symObjAddr: 0xCC4, symBinAddr: 0x100005040, symSize: 0x3C }
  - { offsetInCU: 0x266E3, offset: 0x266E3, size: 0x8, addend: 0x0, symName: __ZNSt8__detail16_Hashtable_allocISaINS_10_Hash_nodeISt4pairIKcxELb0EEEEE21_M_deallocate_bucketsEPPNS_15_Hash_node_baseEm, symObjAddr: 0xD00, symBinAddr: 0x10000507C, symSize: 0x78 }
  - { offsetInCU: 0x2671E, offset: 0x2671E, size: 0x8, addend: 0x0, symName: __ZNSt8__detail16_Hashtable_allocISaINS_10_Hash_nodeISt4pairIKcxELb0EEEEE18_M_deallocate_nodeEPS5_, symObjAddr: 0xC5C, symBinAddr: 0x100004FD8, symSize: 0x68 }
  - { offsetInCU: 0x26726, offset: 0x26726, size: 0x8, addend: 0x0, symName: __ZNKSt10_HashtableIcSt4pairIKcxESaIS2_ENSt8__detail10_Select1stESt8equal_toIcESt4hashIcENS4_18_Mod_range_hashingENS4_20_Default_ranged_hashENS4_20_Prime_rehash_policyENS4_17_Hashtable_traitsILb0ELb0ELb1EEEE21_M_uses_single_bucketEPPNS4_15_Hash_node_baseE, symObjAddr: 0xCC4, symBinAddr: 0x100005040, symSize: 0x3C }
  - { offsetInCU: 0x267CB, offset: 0x267CB, size: 0x8, addend: 0x0, symName: __ZNSt8__detail21_Hash_node_value_baseISt4pairIKcxEE9_M_valptrEv, symObjAddr: 0xC40, symBinAddr: 0x100004FBC, symSize: 0x1C }
  - { offsetInCU: 0x267D3, offset: 0x267D3, size: 0x8, addend: 0x0, symName: __ZNSt8__detail16_Hashtable_allocISaINS_10_Hash_nodeISt4pairIKcxELb0EEEEE18_M_deallocate_nodeEPS5_, symObjAddr: 0xC5C, symBinAddr: 0x100004FD8, symSize: 0x68 }
  - { offsetInCU: 0x267FA, offset: 0x267FA, size: 0x8, addend: 0x0, symName: __ZNKSt8__detail10_Hash_nodeISt4pairIKcxELb0EE7_M_nextEv, symObjAddr: 0xC28, symBinAddr: 0x100004FA4, symSize: 0x18 }
  - { offsetInCU: 0x26802, offset: 0x26802, size: 0x8, addend: 0x0, symName: __ZNSt8__detail21_Hash_node_value_baseISt4pairIKcxEE9_M_valptrEv, symObjAddr: 0xC40, symBinAddr: 0x100004FBC, symSize: 0x1C }
  - { offsetInCU: 0x268A6, offset: 0x268A6, size: 0x8, addend: 0x0, symName: __ZNSt8__detail14_Node_iteratorISt4pairIKcxELb0ELb0EEC1EPNS_10_Hash_nodeIS3_Lb0EEE, symObjAddr: 0xC00, symBinAddr: 0x100004F7C, symSize: 0x28 }
  - { offsetInCU: 0x268AE, offset: 0x268AE, size: 0x8, addend: 0x0, symName: __ZNKSt8__detail10_Hash_nodeISt4pairIKcxELb0EE7_M_nextEv, symObjAddr: 0xC28, symBinAddr: 0x100004FA4, symSize: 0x18 }
  - { offsetInCU: 0x26891, offset: 0x26891, size: 0x8, addend: 0x0, symName: __ZNKSt8__detail14_Node_iteratorISt4pairIKcxELb0ELb0EEptEv, symObjAddr: 0xBDC, symBinAddr: 0x100004F58, symSize: 0x24 }
  - { offsetInCU: 0x26899, offset: 0x26899, size: 0x8, addend: 0x0, symName: __ZNSt8__detail14_Node_iteratorISt4pairIKcxELb0ELb0EEC1EPNS_10_Hash_nodeIS3_Lb0EEE, symObjAddr: 0xC00, symBinAddr: 0x100004F7C, symSize: 0x28 }
  - { offsetInCU: 0x268C0, offset: 0x268C0, size: 0x8, addend: 0x0, symName: __ZNSt10_HashtableIcSt4pairIKcxESaIS2_ENSt8__detail10_Select1stESt8equal_toIcESt4hashIcENS4_18_Mod_range_hashingENS4_20_Default_ranged_hashENS4_20_Prime_rehash_policyENS4_17_Hashtable_traitsILb0ELb0ELb1EEEE21_M_insert_unique_nodeEmmPNS4_10_Hash_nodeIS2_Lb0EEEm, symObjAddr: 0xAF4, symBinAddr: 0x100004E70, symSize: 0xE8 }
  - { offsetInCU: 0x268C8, offset: 0x268C8, size: 0x8, addend: 0x0, symName: __ZNKSt8__detail14_Node_iteratorISt4pairIKcxELb0ELb0EEptEv, symObjAddr: 0xBDC, symBinAddr: 0x100004F58, symSize: 0x24 }
  - { offsetInCU: 0x26A73, offset: 0x26A73, size: 0x8, addend: 0x0, symName: __ZNSt10_HashtableIcSt4pairIKcxESaIS2_ENSt8__detail10_Select1stESt8equal_toIcESt4hashIcENS4_18_Mod_range_hashingENS4_20_Default_ranged_hashENS4_20_Prime_rehash_policyENS4_17_Hashtable_traitsILb0ELb0ELb1EEEE12_Scoped_nodeD1Ev, symObjAddr: 0xAB0, symBinAddr: 0x100004E2C, symSize: 0x44 }
  - { offsetInCU: 0x26A7B, offset: 0x26A7B, size: 0x8, addend: 0x0, symName: __ZNSt10_HashtableIcSt4pairIKcxESaIS2_ENSt8__detail10_Select1stESt8equal_toIcESt4hashIcENS4_18_Mod_range_hashingENS4_20_Default_ranged_hashENS4_20_Prime_rehash_policyENS4_17_Hashtable_traitsILb0ELb0ELb1EEEE21_M_insert_unique_nodeEmmPNS4_10_Hash_nodeIS2_Lb0EEEm, symObjAddr: 0xAF4, symBinAddr: 0x100004E70, symSize: 0xE8 }
  - { offsetInCU: 0x26B83, offset: 0x26B83, size: 0x8, addend: 0x0, symName: __ZNSt10_HashtableIcSt4pairIKcxESaIS2_ENSt8__detail10_Select1stESt8equal_toIcESt4hashIcENS4_18_Mod_range_hashingENS4_20_Default_ranged_hashENS4_20_Prime_rehash_policyENS4_17_Hashtable_traitsILb0ELb0ELb1EEEE12_Scoped_nodeC1IJRKSt21piecewise_construct_tSt5tupleIJRS1_EESL_IJEEEEEPNS4_16_Hashtable_allocISaINS4_10_Hash_nodeIS2_Lb0EEEEEEDpOT_, symObjAddr: 0xA28, symBinAddr: 0x100004DA4, symSize: 0x88 }
  - { offsetInCU: 0x26B8B, offset: 0x26B8B, size: 0x8, addend: 0x0, symName: __ZNSt10_HashtableIcSt4pairIKcxESaIS2_ENSt8__detail10_Select1stESt8equal_toIcESt4hashIcENS4_18_Mod_range_hashingENS4_20_Default_ranged_hashENS4_20_Prime_rehash_policyENS4_17_Hashtable_traitsILb0ELb0ELb1EEEE12_Scoped_nodeD1Ev, symObjAddr: 0xAB0, symBinAddr: 0x100004E2C, symSize: 0x44 }
  - { offsetInCU: 0x26B1A, offset: 0x26B1A, size: 0x8, addend: 0x0, symName: __ZNSt5tupleIJRKcEEC1ILb1ELb1EEES1_, symObjAddr: 0xA00, symBinAddr: 0x100004D7C, symSize: 0x28 }
  - { offsetInCU: 0x26B22, offset: 0x26B22, size: 0x8, addend: 0x0, symName: __ZNSt10_HashtableIcSt4pairIKcxESaIS2_ENSt8__detail10_Select1stESt8equal_toIcESt4hashIcENS4_18_Mod_range_hashingENS4_20_Default_ranged_hashENS4_20_Prime_rehash_policyENS4_17_Hashtable_traitsILb0ELb0ELb1EEEE12_Scoped_nodeC1IJRKSt21piecewise_construct_tSt5tupleIJRS1_EESL_IJEEEEEPNS4_16_Hashtable_allocISaINS4_10_Hash_nodeIS2_Lb0EEEEEEDpOT_, symObjAddr: 0xA28, symBinAddr: 0x100004DA4, symSize: 0x88 }
  - { offsetInCU: 0x26B43, offset: 0x26B43, size: 0x8, addend: 0x0, symName: __ZNKSt10_HashtableIcSt4pairIKcxESaIS2_ENSt8__detail10_Select1stESt8equal_toIcESt4hashIcENS4_18_Mod_range_hashingENS4_20_Default_ranged_hashENS4_20_Prime_rehash_policyENS4_17_Hashtable_traitsILb0ELb0ELb1EEEE12_M_find_nodeEmRS1_m, symObjAddr: 0x9AC, symBinAddr: 0x100004D28, symSize: 0x54 }
  - { offsetInCU: 0x26B4B, offset: 0x26B4B, size: 0x8, addend: 0x0, symName: __ZNSt5tupleIJRKcEEC1ILb1ELb1EEES1_, symObjAddr: 0xA00, symBinAddr: 0x100004D7C, symSize: 0x28 }
  - { offsetInCU: 0x26BC3, offset: 0x26BC3, size: 0x8, addend: 0x0, symName: __ZNKSt10_HashtableIcSt4pairIKcxESaIS2_ENSt8__detail10_Select1stESt8equal_toIcESt4hashIcENS4_18_Mod_range_hashingENS4_20_Default_ranged_hashENS4_20_Prime_rehash_policyENS4_17_Hashtable_traitsILb0ELb0ELb1EEEE15_M_bucket_indexEm, symObjAddr: 0x97C, symBinAddr: 0x100004CF8, symSize: 0x30 }
  - { offsetInCU: 0x26BCB, offset: 0x26BCB, size: 0x8, addend: 0x0, symName: __ZNKSt10_HashtableIcSt4pairIKcxESaIS2_ENSt8__detail10_Select1stESt8equal_toIcESt4hashIcENS4_18_Mod_range_hashingENS4_20_Default_ranged_hashENS4_20_Prime_rehash_policyENS4_17_Hashtable_traitsILb0ELb0ELb1EEEE12_M_find_nodeEmRS1_m, symObjAddr: 0x9AC, symBinAddr: 0x100004D28, symSize: 0x54 }
  - { offsetInCU: 0x26C06, offset: 0x26C06, size: 0x8, addend: 0x0, symName: __ZNKSt8__detail15_Hash_code_baseIcSt4pairIKcxENS_10_Select1stESt4hashIcENS_18_Mod_range_hashingENS_20_Default_ranged_hashELb0EE12_M_hash_codeERS2_, symObjAddr: 0x944, symBinAddr: 0x100004CC0, symSize: 0x38 }
  - { offsetInCU: 0x26C0E, offset: 0x26C0E, size: 0x8, addend: 0x0, symName: __ZNKSt10_HashtableIcSt4pairIKcxESaIS2_ENSt8__detail10_Select1stESt8equal_toIcESt4hashIcENS4_18_Mod_range_hashingENS4_20_Default_ranged_hashENS4_20_Prime_rehash_policyENS4_17_Hashtable_traitsILb0ELb0ELb1EEEE15_M_bucket_indexEm, symObjAddr: 0x97C, symBinAddr: 0x100004CF8, symSize: 0x30 }
  - { offsetInCU: 0x26C49, offset: 0x26C49, size: 0x8, addend: 0x0, symName: __ZNSt10_HashtableIcSt4pairIKcxESaIS2_ENSt8__detail10_Select1stESt8equal_toIcESt4hashIcENS4_18_Mod_range_hashingENS4_20_Default_ranged_hashENS4_20_Prime_rehash_policyENS4_17_Hashtable_traitsILb0ELb0ELb1EEEE21_M_deallocate_bucketsEPPNS4_15_Hash_node_baseEm, symObjAddr: 0x8F4, symBinAddr: 0x100004C70, symSize: 0x50 }
  - { offsetInCU: 0x26C51, offset: 0x26C51, size: 0x8, addend: 0x0, symName: __ZNKSt8__detail15_Hash_code_baseIcSt4pairIKcxENS_10_Select1stESt4hashIcENS_18_Mod_range_hashingENS_20_Default_ranged_hashELb0EE12_M_hash_codeERS2_, symObjAddr: 0x944, symBinAddr: 0x100004CC0, symSize: 0x38 }
  - { offsetInCU: 0x26CA0, offset: 0x26CA0, size: 0x8, addend: 0x0, symName: __ZNSt8__detail16_Hashtable_allocISaINS_10_Hash_nodeISt4pairIKcxELb0EEEEE19_M_deallocate_nodesEPS5_, symObjAddr: 0x8A4, symBinAddr: 0x100004C20, symSize: 0x50 }
  - { offsetInCU: 0x26CA8, offset: 0x26CA8, size: 0x8, addend: 0x0, symName: __ZNSt10_HashtableIcSt4pairIKcxESaIS2_ENSt8__detail10_Select1stESt8equal_toIcESt4hashIcENS4_18_Mod_range_hashingENS4_20_Default_ranged_hashENS4_20_Prime_rehash_policyENS4_17_Hashtable_traitsILb0ELb0ELb1EEEE21_M_deallocate_bucketsEPPNS4_15_Hash_node_baseEm, symObjAddr: 0x8F4, symBinAddr: 0x100004C70, symSize: 0x50 }
  - { offsetInCU: 0x26D0B, offset: 0x26D0B, size: 0x8, addend: 0x0, symName: __ZNKSt10_HashtableIcSt4pairIKcxESaIS2_ENSt8__detail10_Select1stESt8equal_toIcESt4hashIcENS4_18_Mod_range_hashingENS4_20_Default_ranged_hashENS4_20_Prime_rehash_policyENS4_17_Hashtable_traitsILb0ELb0ELb1EEEE8_M_beginEv, symObjAddr: 0x88C, symBinAddr: 0x100004C08, symSize: 0x18 }
  - { offsetInCU: 0x26D13, offset: 0x26D13, size: 0x8, addend: 0x0, symName: __ZNSt8__detail16_Hashtable_allocISaINS_10_Hash_nodeISt4pairIKcxELb0EEEEE19_M_deallocate_nodesEPS5_, symObjAddr: 0x8A4, symBinAddr: 0x100004C20, symSize: 0x50 }
  - { offsetInCU: 0x26D53, offset: 0x26D53, size: 0x8, addend: 0x0, symName: __ZNSt8__detail21_Hash_node_value_baseISt4pairIKcxEE4_M_vEv, symObjAddr: 0x870, symBinAddr: 0x100004BEC, symSize: 0x1C }
  - { offsetInCU: 0x26D5B, offset: 0x26D5B, size: 0x8, addend: 0x0, symName: __ZNKSt10_HashtableIcSt4pairIKcxESaIS2_ENSt8__detail10_Select1stESt8equal_toIcESt4hashIcENS4_18_Mod_range_hashingENS4_20_Default_ranged_hashENS4_20_Prime_rehash_policyENS4_17_Hashtable_traitsILb0ELb0ELb1EEEE8_M_beginEv, symObjAddr: 0x88C, symBinAddr: 0x100004C08, symSize: 0x18 }
  - { offsetInCU: 0x26D82, offset: 0x26D82, size: 0x8, addend: 0x0, symName: __ZNSt8__detail19_Node_iterator_baseISt4pairIKcxELb0EE7_M_incrEv, symObjAddr: 0x840, symBinAddr: 0x100004BBC, symSize: 0x30 }
  - { offsetInCU: 0x26D8A, offset: 0x26D8A, size: 0x8, addend: 0x0, symName: __ZNSt8__detail21_Hash_node_value_baseISt4pairIKcxEE4_M_vEv, symObjAddr: 0x870, symBinAddr: 0x100004BEC, symSize: 0x1C }
  - { offsetInCU: 0x26DB1, offset: 0x26DB1, size: 0x8, addend: 0x0, symName: __ZNSt10_HashtableIcSt4pairIKcxESaIS2_ENSt8__detail10_Select1stESt8equal_toIcESt4hashIcENS4_18_Mod_range_hashingENS4_20_Default_ranged_hashENS4_20_Prime_rehash_policyENS4_17_Hashtable_traitsILb0ELb0ELb1EEEE3endEv, symObjAddr: 0x81C, symBinAddr: 0x100004B98, symSize: 0x24 }
  - { offsetInCU: 0x26DB9, offset: 0x26DB9, size: 0x8, addend: 0x0, symName: __ZNSt8__detail19_Node_iterator_baseISt4pairIKcxELb0EE7_M_incrEv, symObjAddr: 0x840, symBinAddr: 0x100004BBC, symSize: 0x30 }
  - { offsetInCU: 0x26DE0, offset: 0x26DE0, size: 0x8, addend: 0x0, symName: __ZNSt10_HashtableIcSt4pairIKcxESaIS2_ENSt8__detail10_Select1stESt8equal_toIcESt4hashIcENS4_18_Mod_range_hashingENS4_20_Default_ranged_hashENS4_20_Prime_rehash_policyENS4_17_Hashtable_traitsILb0ELb0ELb1EEEE5beginEv, symObjAddr: 0x7F0, symBinAddr: 0x100004B6C, symSize: 0x2C }
  - { offsetInCU: 0x26DE8, offset: 0x26DE8, size: 0x8, addend: 0x0, symName: __ZNSt10_HashtableIcSt4pairIKcxESaIS2_ENSt8__detail10_Select1stESt8equal_toIcESt4hashIcENS4_18_Mod_range_hashingENS4_20_Default_ranged_hashENS4_20_Prime_rehash_policyENS4_17_Hashtable_traitsILb0ELb0ELb1EEEE3endEv, symObjAddr: 0x81C, symBinAddr: 0x100004B98, symSize: 0x24 }
  - { offsetInCU: 0x26E0F, offset: 0x26E0F, size: 0x8, addend: 0x0, symName: __ZNSt8__detail9_Map_baseIcSt4pairIKcxESaIS3_ENS_10_Select1stESt8equal_toIcESt4hashIcENS_18_Mod_range_hashingENS_20_Default_ranged_hashENS_20_Prime_rehash_policyENS_17_Hashtable_traitsILb0ELb0ELb1EEELb1EEixERS2_, symObjAddr: 0x6E8, symBinAddr: 0x100004A64, symSize: 0x108 }
  - { offsetInCU: 0x26E17, offset: 0x26E17, size: 0x8, addend: 0x0, symName: __ZNSt10_HashtableIcSt4pairIKcxESaIS2_ENSt8__detail10_Select1stESt8equal_toIcESt4hashIcENS4_18_Mod_range_hashingENS4_20_Default_ranged_hashENS4_20_Prime_rehash_policyENS4_17_Hashtable_traitsILb0ELb0ELb1EEEE5beginEv, symObjAddr: 0x7F0, symBinAddr: 0x100004B6C, symSize: 0x2C }
  - { offsetInCU: 0x26EF0, offset: 0x26EF0, size: 0x8, addend: 0x0, symName: __ZNK9__gnu_cxx17__normal_iteratorIPcNSt7__cxx1112basic_stringIcSt11char_traitsIcESaIcEEEE4baseEv, symObjAddr: 0x6D4, symBinAddr: 0x100004A50, symSize: 0x14 }
  - { offsetInCU: 0x26EF8, offset: 0x26EF8, size: 0x8, addend: 0x0, symName: __ZNSt8__detail9_Map_baseIcSt4pairIKcxESaIS3_ENS_10_Select1stESt8equal_toIcESt4hashIcENS_18_Mod_range_hashingENS_20_Default_ranged_hashENS_20_Prime_rehash_policyENS_17_Hashtable_traitsILb0ELb0ELb1EEELb1EEixERS2_, symObjAddr: 0x6E8, symBinAddr: 0x100004A64, symSize: 0x108 }
  - { offsetInCU: 0x26F1F, offset: 0x26F1F, size: 0x8, addend: 0x0, symName: __ZNSt10_HashtableIcSt4pairIKcxESaIS2_ENSt8__detail10_Select1stESt8equal_toIcESt4hashIcENS4_18_Mod_range_hashingENS4_20_Default_ranged_hashENS4_20_Prime_rehash_policyENS4_17_Hashtable_traitsILb0ELb0ELb1EEEE21_M_deallocate_bucketsEv, symObjAddr: 0x6A0, symBinAddr: 0x100004A1C, symSize: 0x34 }
  - { offsetInCU: 0x26F27, offset: 0x26F27, size: 0x8, addend: 0x0, symName: __ZNK9__gnu_cxx17__normal_iteratorIPcNSt7__cxx1112basic_stringIcSt11char_traitsIcESaIcEEEE4baseEv, symObjAddr: 0x6D4, symBinAddr: 0x100004A50, symSize: 0x14 }
  - { offsetInCU: 0x26F4E, offset: 0x26F4E, size: 0x8, addend: 0x0, symName: __ZNSt10_HashtableIcSt4pairIKcxESaIS2_ENSt8__detail10_Select1stESt8equal_toIcESt4hashIcENS4_18_Mod_range_hashingENS4_20_Default_ranged_hashENS4_20_Prime_rehash_policyENS4_17_Hashtable_traitsILb0ELb0ELb1EEEE5clearEv, symObjAddr: 0x63C, symBinAddr: 0x1000049B8, symSize: 0x64 }
  - { offsetInCU: 0x26F56, offset: 0x26F56, size: 0x8, addend: 0x0, symName: __ZNSt10_HashtableIcSt4pairIKcxESaIS2_ENSt8__detail10_Select1stESt8equal_toIcESt4hashIcENS4_18_Mod_range_hashingENS4_20_Default_ranged_hashENS4_20_Prime_rehash_policyENS4_17_Hashtable_traitsILb0ELb0ELb1EEEE21_M_deallocate_bucketsEv, symObjAddr: 0x6A0, symBinAddr: 0x100004A1C, symSize: 0x34 }
  - { offsetInCU: 0x26FEC, offset: 0x26FEC, size: 0x8, addend: 0x0, symName: __ZNSt15__new_allocatorINSt8__detail10_Hash_nodeISt4pairIKcxELb0EEEED2Ev, symObjAddr: 0x628, symBinAddr: 0x1000049A4, symSize: 0x14 }
  - { offsetInCU: 0x26FF4, offset: 0x26FF4, size: 0x8, addend: 0x0, symName: __ZNSt10_HashtableIcSt4pairIKcxESaIS2_ENSt8__detail10_Select1stESt8equal_toIcESt4hashIcENS4_18_Mod_range_hashingENS4_20_Default_ranged_hashENS4_20_Prime_rehash_policyENS4_17_Hashtable_traitsILb0ELb0ELb1EEEE5clearEv, symObjAddr: 0x63C, symBinAddr: 0x1000049B8, symSize: 0x64 }
  - { offsetInCU: 0x26FED, offset: 0x26FED, size: 0x8, addend: 0x0, symName: __ZNKSt8__detail14_Node_iteratorISt4pairIKcxELb0ELb0EEdeEv, symObjAddr: 0x604, symBinAddr: 0x100004980, symSize: 0x24 }
  - { offsetInCU: 0x26FF5, offset: 0x26FF5, size: 0x8, addend: 0x0, symName: __ZNSt15__new_allocatorINSt8__detail10_Hash_nodeISt4pairIKcxELb0EEEED2Ev, symObjAddr: 0x628, symBinAddr: 0x1000049A4, symSize: 0x14 }
  - { offsetInCU: 0x2701C, offset: 0x2701C, size: 0x8, addend: 0x0, symName: __ZNSt8__detail14_Node_iteratorISt4pairIKcxELb0ELb0EEppEv, symObjAddr: 0x5E4, symBinAddr: 0x100004960, symSize: 0x20 }
  - { offsetInCU: 0x27024, offset: 0x27024, size: 0x8, addend: 0x0, symName: __ZNKSt8__detail14_Node_iteratorISt4pairIKcxELb0ELb0EEdeEv, symObjAddr: 0x604, symBinAddr: 0x100004980, symSize: 0x24 }
  - { offsetInCU: 0x27097, offset: 0x27097, size: 0x8, addend: 0x0, symName: __ZNSt8__detailneERKNS_19_Node_iterator_baseISt4pairIKcxELb0EEES6_, symObjAddr: 0x5B4, symBinAddr: 0x100004930, symSize: 0x30 }
  - { offsetInCU: 0x2709F, offset: 0x2709F, size: 0x8, addend: 0x0, symName: __ZNSt8__detail14_Node_iteratorISt4pairIKcxELb0ELb0EEppEv, symObjAddr: 0x5E4, symBinAddr: 0x100004960, symSize: 0x20 }
  - { offsetInCU: 0x270A8, offset: 0x270A8, size: 0x8, addend: 0x0, symName: __ZNSt13unordered_mapIcxSt4hashIcESt8equal_toIcESaISt4pairIKcxEEE3endEv, symObjAddr: 0x598, symBinAddr: 0x100004914, symSize: 0x1C }
  - { offsetInCU: 0x270B0, offset: 0x270B0, size: 0x8, addend: 0x0, symName: __ZNSt8__detailneERKNS_19_Node_iterator_baseISt4pairIKcxELb0EEES6_, symObjAddr: 0x5B4, symBinAddr: 0x100004930, symSize: 0x30 }
  - { offsetInCU: 0x270D7, offset: 0x270D7, size: 0x8, addend: 0x0, symName: __ZNSt13unordered_mapIcxSt4hashIcESt8equal_toIcESaISt4pairIKcxEEE5beginEv, symObjAddr: 0x57C, symBinAddr: 0x1000048F8, symSize: 0x1C }
  - { offsetInCU: 0x270DF, offset: 0x270DF, size: 0x8, addend: 0x0, symName: __ZNSt13unordered_mapIcxSt4hashIcESt8equal_toIcESaISt4pairIKcxEEE3endEv, symObjAddr: 0x598, symBinAddr: 0x100004914, symSize: 0x1C }
  - { offsetInCU: 0x27106, offset: 0x27106, size: 0x8, addend: 0x0, symName: __ZNSt13unordered_mapIcxSt4hashIcESt8equal_toIcESaISt4pairIKcxEEEixERS5_, symObjAddr: 0x558, symBinAddr: 0x1000048D4, symSize: 0x24 }
  - { offsetInCU: 0x2710E, offset: 0x2710E, size: 0x8, addend: 0x0, symName: __ZNSt13unordered_mapIcxSt4hashIcESt8equal_toIcESaISt4pairIKcxEEE5beginEv, symObjAddr: 0x57C, symBinAddr: 0x1000048F8, symSize: 0x1C }
  - { offsetInCU: 0x27149, offset: 0x27149, size: 0x8, addend: 0x0, symName: __ZNK9__gnu_cxx17__normal_iteratorIPcNSt7__cxx1112basic_stringIcSt11char_traitsIcESaIcEEEEdeEv, symObjAddr: 0x540, symBinAddr: 0x1000048BC, symSize: 0x18 }
  - { offsetInCU: 0x27151, offset: 0x27151, size: 0x8, addend: 0x0, symName: __ZNSt13unordered_mapIcxSt4hashIcESt8equal_toIcESaISt4pairIKcxEEEixERS5_, symObjAddr: 0x558, symBinAddr: 0x1000048D4, symSize: 0x24 }
  - { offsetInCU: 0x27178, offset: 0x27178, size: 0x8, addend: 0x0, symName: __ZN9__gnu_cxx17__normal_iteratorIPcNSt7__cxx1112basic_stringIcSt11char_traitsIcESaIcEEEEppEv, symObjAddr: 0x518, symBinAddr: 0x100004894, symSize: 0x28 }
  - { offsetInCU: 0x27180, offset: 0x27180, size: 0x8, addend: 0x0, symName: __ZNK9__gnu_cxx17__normal_iteratorIPcNSt7__cxx1112basic_stringIcSt11char_traitsIcESaIcEEEEdeEv, symObjAddr: 0x540, symBinAddr: 0x1000048BC, symSize: 0x18 }
  - { offsetInCU: 0x2724F, offset: 0x2724F, size: 0x8, addend: 0x0, symName: __ZN9__gnu_cxxneIPcNSt7__cxx1112basic_stringIcSt11char_traitsIcESaIcEEEEEbRKNS_17__normal_iteratorIT_T0_EESD_, symObjAddr: 0x4D4, symBinAddr: 0x100004850, symSize: 0x44 }
  - { offsetInCU: 0x27257, offset: 0x27257, size: 0x8, addend: 0x0, symName: __ZN9__gnu_cxx17__normal_iteratorIPcNSt7__cxx1112basic_stringIcSt11char_traitsIcESaIcEEEEppEv, symObjAddr: 0x518, symBinAddr: 0x100004894, symSize: 0x28 }
  - { offsetInCU: 0x27317, offset: 0x27317, size: 0x8, addend: 0x0, symName: __ZNSt10_HashtableIcSt4pairIKcxESaIS2_ENSt8__detail10_Select1stESt8equal_toIcESt4hashIcENS4_18_Mod_range_hashingENS4_20_Default_ranged_hashENS4_20_Prime_rehash_policyENS4_17_Hashtable_traitsILb0ELb0ELb1EEEED1Ev, symObjAddr: 0x4A4, symBinAddr: 0x100004820, symSize: 0x30 }
  - { offsetInCU: 0x2731F, offset: 0x2731F, size: 0x8, addend: 0x0, symName: __ZN9__gnu_cxxneIPcNSt7__cxx1112basic_stringIcSt11char_traitsIcESaIcEEEEEbRKNS_17__normal_iteratorIT_T0_EESD_, symObjAddr: 0x4D4, symBinAddr: 0x100004850, symSize: 0x44 }
  - { offsetInCU: 0x2730F, offset: 0x2730F, size: 0x8, addend: 0x0, symName: __ZNSt8__detail21_Hashtable_ebo_helperILi0ESaINS_10_Hash_nodeISt4pairIKcxELb0EEEELb1EEC2Ev, symObjAddr: 0x478, symBinAddr: 0x1000047F4, symSize: 0x2C }
  - { offsetInCU: 0x27317, offset: 0x27317, size: 0x8, addend: 0x0, symName: __ZNSt10_HashtableIcSt4pairIKcxESaIS2_ENSt8__detail10_Select1stESt8equal_toIcESt4hashIcENS4_18_Mod_range_hashingENS4_20_Default_ranged_hashENS4_20_Prime_rehash_policyENS4_17_Hashtable_traitsILb0ELb0ELb1EEEED1Ev, symObjAddr: 0x4A4, symBinAddr: 0x100004820, symSize: 0x30 }
  - { offsetInCU: 0x27390, offset: 0x27390, size: 0x8, addend: 0x0, symName: __ZNSt8__detail21_Hashtable_ebo_helperILi0ESt8equal_toIcELb1EEC2Ev, symObjAddr: 0x464, symBinAddr: 0x1000047E0, symSize: 0x14 }
  - { offsetInCU: 0x27398, offset: 0x27398, size: 0x8, addend: 0x0, symName: __ZNSt8__detail21_Hashtable_ebo_helperILi0ESaINS_10_Hash_nodeISt4pairIKcxELb0EEEELb1EEC2Ev, symObjAddr: 0x478, symBinAddr: 0x1000047F4, symSize: 0x2C }
  - { offsetInCU: 0x273D5, offset: 0x273D5, size: 0x8, addend: 0x0, symName: __ZNSt8__detail21_Hashtable_ebo_helperILi1ESt4hashIcELb1EEC2Ev, symObjAddr: 0x450, symBinAddr: 0x1000047CC, symSize: 0x14 }
  - { offsetInCU: 0x273DD, offset: 0x273DD, size: 0x8, addend: 0x0, symName: __ZNSt8__detail21_Hashtable_ebo_helperILi0ESt8equal_toIcELb1EEC2Ev, symObjAddr: 0x464, symBinAddr: 0x1000047E0, symSize: 0x14 }
  - { offsetInCU: 0x273D1, offset: 0x273D1, size: 0x8, addend: 0x0, symName: _main, symObjAddr: 0x27C, symBinAddr: 0x1000045F8, symSize: 0x1D4 }
  - { offsetInCU: 0x273D9, offset: 0x273D9, size: 0x8, addend: 0x0, symName: __ZNSt8__detail21_Hashtable_ebo_helperILi1ESt4hashIcELb1EEC2Ev, symObjAddr: 0x450, symBinAddr: 0x1000047CC, symSize: 0x14 }
  - { offsetInCU: 0x2758C, offset: 0x2758C, size: 0x8, addend: 0x0, symName: __ZNSt13unordered_mapIcxSt4hashIcESt8equal_toIcESaISt4pairIKcxEEED1Ev, symObjAddr: 0x25C, symBinAddr: 0x1000045D8, symSize: 0x20 }
  - { offsetInCU: 0x27594, offset: 0x27594, size: 0x8, addend: 0x0, symName: _main, symObjAddr: 0x27C, symBinAddr: 0x1000045F8, symSize: 0x1D4 }
  - { offsetInCU: 0x275D5, offset: 0x275D5, size: 0x8, addend: 0x0, symName: __ZNSt13unordered_mapIcxSt4hashIcESt8equal_toIcESaISt4pairIKcxEEEC1Ev, symObjAddr: 0x23C, symBinAddr: 0x1000045B8, symSize: 0x20 }
  - { offsetInCU: 0x275DD, offset: 0x275DD, size: 0x8, addend: 0x0, symName: __ZNSt13unordered_mapIcxSt4hashIcESt8equal_toIcESaISt4pairIKcxEEED1Ev, symObjAddr: 0x25C, symBinAddr: 0x1000045D8, symSize: 0x20 }
  - { offsetInCU: 0x276AB, offset: 0x276AB, size: 0x8, addend: 0x0, symName: __ZNSt10_HashtableIcSt4pairIKcxESaIS2_ENSt8__detail10_Select1stESt8equal_toIcESt4hashIcENS4_18_Mod_range_hashingENS4_20_Default_ranged_hashENS4_20_Prime_rehash_policyENS4_17_Hashtable_traitsILb0ELb0ELb1EEEEC1Ev, symObjAddr: 0x1CC, symBinAddr: 0x100004548, symSize: 0x70 }
  - { offsetInCU: 0x276B3, offset: 0x276B3, size: 0x8, addend: 0x0, symName: __ZNSt13unordered_mapIcxSt4hashIcESt8equal_toIcESaISt4pairIKcxEEEC1Ev, symObjAddr: 0x23C, symBinAddr: 0x1000045B8, symSize: 0x20 }
  - { offsetInCU: 0x27682, offset: 0x27682, size: 0x8, addend: 0x0, symName: __ZNSt8__detail16_Hashtable_allocISaINS_10_Hash_nodeISt4pairIKcxELb0EEEEED2Ev, symObjAddr: 0x1AC, symBinAddr: 0x100004528, symSize: 0x20 }
  - { offsetInCU: 0x2768A, offset: 0x2768A, size: 0x8, addend: 0x0, symName: __ZNSt10_HashtableIcSt4pairIKcxESaIS2_ENSt8__detail10_Select1stESt8equal_toIcESt4hashIcENS4_18_Mod_range_hashingENS4_20_Default_ranged_hashENS4_20_Prime_rehash_policyENS4_17_Hashtable_traitsILb0ELb0ELb1EEEEC1Ev, symObjAddr: 0x1CC, symBinAddr: 0x100004548, symSize: 0x70 }
  - { offsetInCU: 0x276CB, offset: 0x276CB, size: 0x8, addend: 0x0, symName: __ZNSt8__detail16_Hashtable_allocISaINS_10_Hash_nodeISt4pairIKcxELb0EEEEEC2Ev, symObjAddr: 0x18C, symBinAddr: 0x100004508, symSize: 0x20 }
  - { offsetInCU: 0x276D3, offset: 0x276D3, size: 0x8, addend: 0x0, symName: __ZNSt8__detail16_Hashtable_allocISaINS_10_Hash_nodeISt4pairIKcxELb0EEEEED2Ev, symObjAddr: 0x1AC, symBinAddr: 0x100004528, symSize: 0x20 }
  - { offsetInCU: 0x27734, offset: 0x27734, size: 0x8, addend: 0x0, symName: __ZNSt8__detail21_Hashtable_ebo_helperILi0ESaINS_10_Hash_nodeISt4pairIKcxELb0EEEELb1EED2Ev, symObjAddr: 0x160, symBinAddr: 0x1000044DC, symSize: 0x2C }
  - { offsetInCU: 0x2773C, offset: 0x2773C, size: 0x8, addend: 0x0, symName: __ZNSt8__detail16_Hashtable_allocISaINS_10_Hash_nodeISt4pairIKcxELb0EEEEEC2Ev, symObjAddr: 0x18C, symBinAddr: 0x100004508, symSize: 0x20 }
  - { offsetInCU: 0x277FD, offset: 0x277FD, size: 0x8, addend: 0x0, symName: __ZNSt8__detail15_Hashtable_baseIcSt4pairIKcxENS_10_Select1stESt8equal_toIcESt4hashIcENS_18_Mod_range_hashingENS_20_Default_ranged_hashENS_17_Hashtable_traitsILb0ELb0ELb1EEEEC2Ev, symObjAddr: 0x138, symBinAddr: 0x1000044B4, symSize: 0x28 }
  - { offsetInCU: 0x27805, offset: 0x27805, size: 0x8, addend: 0x0, symName: __ZNSt8__detail21_Hashtable_ebo_helperILi0ESaINS_10_Hash_nodeISt4pairIKcxELb0EEEELb1EED2Ev, symObjAddr: 0x160, symBinAddr: 0x1000044DC, symSize: 0x2C }
  - { offsetInCU: 0x27817, offset: 0x27817, size: 0x8, addend: 0x0, symName: __ZNSt8__detail15_Hash_code_baseIcSt4pairIKcxENS_10_Select1stESt4hashIcENS_18_Mod_range_hashingENS_20_Default_ranged_hashELb0EEC2Ev, symObjAddr: 0x118, symBinAddr: 0x100004494, symSize: 0x20 }
  - { offsetInCU: 0x2781F, offset: 0x2781F, size: 0x8, addend: 0x0, symName: __ZNSt8__detail15_Hashtable_baseIcSt4pairIKcxENS_10_Select1stESt8equal_toIcESt4hashIcENS_18_Mod_range_hashingENS_20_Default_ranged_hashENS_17_Hashtable_traitsILb0ELb0ELb1EEEEC2Ev, symObjAddr: 0x138, symBinAddr: 0x1000044B4, symSize: 0x28 }
  - { offsetInCU: 0x277C4, offset: 0x277C4, size: 0x8, addend: 0x0, symName: __ZNSt8__detail20_Prime_rehash_policy8_M_resetEm, symObjAddr: 0xF4, symBinAddr: 0x100004470, symSize: 0x24 }
  - { offsetInCU: 0x277CC, offset: 0x277CC, size: 0x8, addend: 0x0, symName: __ZNSt8__detail15_Hash_code_baseIcSt4pairIKcxENS_10_Select1stESt4hashIcENS_18_Mod_range_hashingENS_20_Default_ranged_hashELb0EEC2Ev, symObjAddr: 0x118, symBinAddr: 0x100004494, symSize: 0x20 }
  - { offsetInCU: 0x27807, offset: 0x27807, size: 0x8, addend: 0x0, symName: __ZNKSt8__detail20_Prime_rehash_policy8_M_stateEv, symObjAddr: 0xDC, symBinAddr: 0x100004458, symSize: 0x18 }
  - { offsetInCU: 0x2780F, offset: 0x2780F, size: 0x8, addend: 0x0, symName: __ZNSt8__detail20_Prime_rehash_policy8_M_resetEm, symObjAddr: 0xF4, symBinAddr: 0x100004470, symSize: 0x24 }
  - { offsetInCU: 0x2788A, offset: 0x2788A, size: 0x8, addend: 0x0, symName: __ZNSt8__detail20_Prime_rehash_policyC1Ef, symObjAddr: 0xB0, symBinAddr: 0x10000442C, symSize: 0x2C }
  - { offsetInCU: 0x27892, offset: 0x27892, size: 0x8, addend: 0x0, symName: __ZNKSt8__detail20_Prime_rehash_policy8_M_stateEv, symObjAddr: 0xDC, symBinAddr: 0x100004458, symSize: 0x18 }
  - { offsetInCU: 0x2789E, offset: 0x2789E, size: 0x8, addend: 0x0, symName: __ZNKSt8__detail18_Mod_range_hashingclEmm, symObjAddr: 0x80, symBinAddr: 0x1000043FC, symSize: 0x30 }
  - { offsetInCU: 0x278A6, offset: 0x278A6, size: 0x8, addend: 0x0, symName: __ZNSt8__detail20_Prime_rehash_policyC1Ef, symObjAddr: 0xB0, symBinAddr: 0x10000442C, symSize: 0x2C }
  - { offsetInCU: 0x27932, offset: 0x27932, size: 0x8, addend: 0x0, symName: __ZNSt8__detail15_Hash_node_baseC1Ev, symObjAddr: 0x64, symBinAddr: 0x1000043E0, symSize: 0x1C }
  - { offsetInCU: 0x2793A, offset: 0x2793A, size: 0x8, addend: 0x0, symName: __ZNKSt8__detail18_Mod_range_hashingclEmm, symObjAddr: 0x80, symBinAddr: 0x1000043FC, symSize: 0x30 }
  - { offsetInCU: 0x27962, offset: 0x27962, size: 0x8, addend: 0x0, symName: __ZNSt8__detail15_Hash_node_baseC2Ev, symObjAddr: 0x48, symBinAddr: 0x1000043C4, symSize: 0x1C }
  - { offsetInCU: 0x2796A, offset: 0x2796A, size: 0x8, addend: 0x0, symName: __ZNSt8__detail15_Hash_node_baseC1Ev, symObjAddr: 0x64, symBinAddr: 0x1000043E0, symSize: 0x1C }
  - { offsetInCU: 0x2796E, offset: 0x2796E, size: 0x8, addend: 0x0, symName: __ZNKSt4hashIcEclEc, symObjAddr: 0x30, symBinAddr: 0x1000043AC, symSize: 0x18 }
  - { offsetInCU: 0x27976, offset: 0x27976, size: 0x8, addend: 0x0, symName: __ZNSt8__detail15_Hash_node_baseC2Ev, symObjAddr: 0x48, symBinAddr: 0x1000043C4, symSize: 0x1C }
  - { offsetInCU: 0x279BE, offset: 0x279BE, size: 0x8, addend: 0x0, symName: __ZdlPvS_, symObjAddr: 0x18, symBinAddr: 0x100004394, symSize: 0x18 }
  - { offsetInCU: 0x279C6, offset: 0x279C6, size: 0x8, addend: 0x0, symName: __ZNKSt4hashIcEclEc, symObjAddr: 0x30, symBinAddr: 0x1000043AC, symSize: 0x18 }
  - { offsetInCU: 0x279FC, offset: 0x279FC, size: 0x8, addend: 0x0, symName: __ZnwmPv, symObjAddr: 0x0, symBinAddr: 0x10000437C, symSize: 0x18 }
  - { offsetInCU: 0x27A04, offset: 0x27A04, size: 0x8, addend: 0x0, symName: __ZdlPvS_, symObjAddr: 0x18, symBinAddr: 0x100004394, symSize: 0x18 }
...
